
connection_builder_profiled.elf:     file format elf32-littlearm
connection_builder_profiled.elf
architecture: armv5te, flags 0x00000112:
EXEC_P, HAS_SYMS, D_PAGED
start address 0x00000000

Program Header:
    LOAD off    0x00010000 vaddr 0x00000000 paddr 0x00000000 align 2**16
         filesz 0x00006361 memsz 0x00006361 flags r-x
    LOAD off    0x00020000 vaddr 0x00400000 paddr 0x00400000 align 2**16
         filesz 0x0000000c memsz 0x000008b8 flags rw-
private flags = 5000200: [Version5 EABI] [soft-float ABI]

Sections:
Idx Name          Size      VMA       LMA       File off  Algn
  0 RO_DATA       00006361  00000000  00000000  00010000  2**3
                  CONTENTS, ALLOC, LOAD, READONLY, CODE
  1 RW_DATA       0000000c  00400000  00400000  00020000  2**2
                  CONTENTS, ALLOC, LOAD, DATA
  2 ZI_DATA       000008ac  0040000c  0040000c  0002000c  2**2
                  ALLOC
  3 .comment      0000007f  00000000  00000000  0002000c  2**0
                  CONTENTS, READONLY
  4 .ARM.attributes 00000029  00000000  00000000  0002008b  2**0
                  CONTENTS, READONLY
  5 .debug_aranges 00000680  00000000  00000000  000200b4  2**0
                  CONTENTS, READONLY, DEBUGGING
  6 .debug_info   00011c97  00000000  00000000  00020734  2**0
                  CONTENTS, READONLY, DEBUGGING
  7 .debug_abbrev 00002377  00000000  00000000  000323cb  2**0
                  CONTENTS, READONLY, DEBUGGING
  8 .debug_line   00001d6b  00000000  00000000  00034742  2**0
                  CONTENTS, READONLY, DEBUGGING
  9 .debug_frame  00001314  00000000  00000000  000364b0  2**2
                  CONTENTS, READONLY, DEBUGGING
 10 .debug_str    00001e80  00000000  00000000  000377c4  2**0
                  CONTENTS, READONLY, DEBUGGING
 11 .debug_loc    00004fc9  00000000  00000000  00039644  2**0
                  CONTENTS, READONLY, DEBUGGING
 12 .debug_ranges 000009e8  00000000  00000000  0003e60d  2**0
                  CONTENTS, READONLY, DEBUGGING
SYMBOL TABLE:
00000000 l    d  RO_DATA	00000000 RO_DATA
00400000 l    d  RW_DATA	00000000 RW_DATA
0040000c l    d  ZI_DATA	00000000 ZI_DATA
00000000 l    d  .comment	00000000 .comment
00000000 l    d  .ARM.attributes	00000000 .ARM.attributes
00000000 l    d  .debug_aranges	00000000 .debug_aranges
00000000 l    d  .debug_info	00000000 .debug_info
00000000 l    d  .debug_abbrev	00000000 .debug_abbrev
00000000 l    d  .debug_line	00000000 .debug_line
00000000 l    d  .debug_frame	00000000 .debug_frame
00000000 l    d  .debug_str	00000000 .debug_str
00000000 l    d  .debug_loc	00000000 .debug_loc
00000000 l    d  .debug_ranges	00000000 .debug_ranges
00000000 l    df *ABS*	00000000 sark.o
00000001 l       *ABS*	00000000 GNU
00000000 l       *ABS*	00000000 NULL
80000000 l       *ABS*	00000000 BIT_31
00000001 l       *ABS*	00000000 BUF_WRITE
00000012 l       *ABS*	00000000 NUM_CPUS
00000006 l       *ABS*	00000000 NUM_LINKS
00000000 l       *ABS*	00000000 ITCM_BASE
00008000 l       *ABS*	00000000 ITCM_SIZE
00008000 l       *ABS*	00000000 ITCM_TOP
00400000 l       *ABS*	00000000 DTCM_BASE
00010000 l       *ABS*	00000000 DTCM_SIZE
00410000 l       *ABS*	00000000 DTCM_TOP
70000000 l       *ABS*	00000000 SDRAM_BASE_UNBUF
60000000 l       *ABS*	00000000 SDRAM_BASE_BUF
60000000 l       *ABS*	00000000 SDRAM_BASE
08000000 l       *ABS*	00000000 SDRAM_SIZE
68000000 l       *ABS*	00000000 SDRAM_TOP
f5000000 l       *ABS*	00000000 SYSRAM_BASE_UNBUF
e5000000 l       *ABS*	00000000 SYSRAM_BASE_BUF
e5000000 l       *ABS*	00000000 SYSRAM_BASE
00008000 l       *ABS*	00000000 SYSRAM_SIZE
e5008000 l       *ABS*	00000000 SYSRAM_TOP
f6000000 l       *ABS*	00000000 ROM_BASE
00008000 l       *ABS*	00000000 ROM_SIZE
f6008000 l       *ABS*	00000000 ROM_TOP
10000000 l       *ABS*	00000000 CC_BASE_UNBUF
20000000 l       *ABS*	00000000 CC_BASE_BUF
20000000 l       *ABS*	00000000 CC_BASE
00000000 l       *ABS*	00000000 CC_TCR
00000004 l       *ABS*	00000000 CC_TXDATA
00000008 l       *ABS*	00000000 CC_TXKEY
0000000c l       *ABS*	00000000 CC_RSR
00000010 l       *ABS*	00000000 CC_RXDATA
00000014 l       *ABS*	00000000 CC_RXKEY
00000018 l       *ABS*	00000000 CC_SAR
0000001c l       *ABS*	00000000 CC_TEST
11000000 l       *ABS*	00000000 TIMER_BASE_UNBUF
21000000 l       *ABS*	00000000 TIMER_BASE_BUF
21000000 l       *ABS*	00000000 TIMER_BASE
00000020 l       *ABS*	00000000 TIMER_OFFSET
21000000 l       *ABS*	00000000 TIMER1_BASE
21000020 l       *ABS*	00000000 TIMER2_BASE
00000000 l       *ABS*	00000000 TC_LOAD
00000004 l       *ABS*	00000000 TC_COUNT
00000008 l       *ABS*	00000000 TC_CONTROL
0000000c l       *ABS*	00000000 TC_INT_CLR
00000010 l       *ABS*	00000000 TC_RAW_INT
00000014 l       *ABS*	00000000 TC_MASK_INT
00000018 l       *ABS*	00000000 TC_BG_LOAD
00000000 l       *ABS*	00000000 T1_LOAD
00000004 l       *ABS*	00000000 T1_COUNT
00000008 l       *ABS*	00000000 T1_CONTROL
0000000c l       *ABS*	00000000 T1_INT_CLR
00000010 l       *ABS*	00000000 T1_RAW_INT
00000014 l       *ABS*	00000000 T1_MASK_INT
00000018 l       *ABS*	00000000 T1_BG_LOAD
00000020 l       *ABS*	00000000 T2_LOAD
00000024 l       *ABS*	00000000 T2_COUNT
00000028 l       *ABS*	00000000 T2_CONTROL
0000002c l       *ABS*	00000000 T2_INT_CLR
00000030 l       *ABS*	00000000 T2_RAW_INT
00000034 l       *ABS*	00000000 T2_MASK_INT
00000038 l       *ABS*	00000000 T2_BG_LOAD
1f000000 l       *ABS*	00000000 VIC_BASE_UNBUF
2f000000 l       *ABS*	00000000 VIC_BASE_BUF
2f000000 l       *ABS*	00000000 VIC_BASE
00000000 l       *ABS*	00000000 VIC_IRQST
00000004 l       *ABS*	00000000 VIC_FIQST
00000008 l       *ABS*	00000000 VIC_RAW
0000000c l       *ABS*	00000000 VIC_SELECT
00000010 l       *ABS*	00000000 VIC_ENABLE
00000014 l       *ABS*	00000000 VIC_DISABLE
00000018 l       *ABS*	00000000 VIC_SOFT_SET
0000001c l       *ABS*	00000000 VIC_SOFT_CLR
00000020 l       *ABS*	00000000 VIC_PROTECT
00000030 l       *ABS*	00000000 VIC_VADDR
00000034 l       *ABS*	00000000 VIC_DEFADDR
00000100 l       *ABS*	00000000 VIC_ADDR
00000100 l       *ABS*	00000000 VIC_ADDR0
00000104 l       *ABS*	00000000 VIC_ADDR1
00000108 l       *ABS*	00000000 VIC_ADDR2
0000010c l       *ABS*	00000000 VIC_ADDR3
00000110 l       *ABS*	00000000 VIC_ADDR4
00000114 l       *ABS*	00000000 VIC_ADDR5
00000118 l       *ABS*	00000000 VIC_ADDR6
0000011c l       *ABS*	00000000 VIC_ADDR7
00000120 l       *ABS*	00000000 VIC_ADDR8
00000124 l       *ABS*	00000000 VIC_ADDR9
00000128 l       *ABS*	00000000 VIC_ADDR10
0000012c l       *ABS*	00000000 VIC_ADDR11
00000130 l       *ABS*	00000000 VIC_ADDR12
00000134 l       *ABS*	00000000 VIC_ADDR13
00000138 l       *ABS*	00000000 VIC_ADDR14
0000013c l       *ABS*	00000000 VIC_ADDR15
00000200 l       *ABS*	00000000 VIC_CNTL
00000200 l       *ABS*	00000000 VIC_CNTL0
00000204 l       *ABS*	00000000 VIC_CNTL1
00000208 l       *ABS*	00000000 VIC_CNTL2
0000020c l       *ABS*	00000000 VIC_CNTL3
00000210 l       *ABS*	00000000 VIC_CNTL4
00000214 l       *ABS*	00000000 VIC_CNTL5
00000218 l       *ABS*	00000000 VIC_CNTL6
0000021c l       *ABS*	00000000 VIC_CNTL7
00000220 l       *ABS*	00000000 VIC_CNTL8
00000224 l       *ABS*	00000000 VIC_CNTL9
00000228 l       *ABS*	00000000 VIC_CNTL10
0000022c l       *ABS*	00000000 VIC_CNTL11
00000230 l       *ABS*	00000000 VIC_CNTL12
00000234 l       *ABS*	00000000 VIC_CNTL13
00000238 l       *ABS*	00000000 VIC_CNTL14
0000023c l       *ABS*	00000000 VIC_CNTL15
00000000 l       *ABS*	00000000 WDOG_INT
00000001 l       *ABS*	00000000 SOFTWARE_INT
00000002 l       *ABS*	00000000 COMM_RX_INT
00000003 l       *ABS*	00000000 COMM_TX_INT
00000004 l       *ABS*	00000000 TIMER1_INT
00000005 l       *ABS*	00000000 TIMER2_INT
00000006 l       *ABS*	00000000 CC_RDY_INT
00000007 l       *ABS*	00000000 CC_RPE_INT
00000008 l       *ABS*	00000000 CC_RFE_INT
00000009 l       *ABS*	00000000 CC_TFL_INT
0000000a l       *ABS*	00000000 CC_TOV_INT
0000000b l       *ABS*	00000000 CC_TMT_INT
0000000c l       *ABS*	00000000 DMA_DONE_INT
0000000d l       *ABS*	00000000 DMA_ERR_INT
0000000e l       *ABS*	00000000 DMA_TO_INT
0000000f l       *ABS*	00000000 RTR_DIAG_INT
00000010 l       *ABS*	00000000 RTR_DUMP_INT
00000011 l       *ABS*	00000000 RTR_ERR_INT
00000012 l       *ABS*	00000000 CPU_INT
00000013 l       *ABS*	00000000 ETH_TX_INT
00000014 l       *ABS*	00000000 ETH_RX_INT
00000015 l       *ABS*	00000000 ETH_PHY_INT
00000016 l       *ABS*	00000000 SLOW_CLK_INT
00000017 l       *ABS*	00000000 CC_TNF_INT
00000018 l       *ABS*	00000000 CC_MC_INT
00000019 l       *ABS*	00000000 CC_P2P_INT
0000001a l       *ABS*	00000000 CC_NN_INT
0000001b l       *ABS*	00000000 CC_FR_INT
0000001c l       *ABS*	00000000 INT0_INT
0000001d l       *ABS*	00000000 INT1_INT
0000001e l       *ABS*	00000000 GPIO8_INT
0000001f l       *ABS*	00000000 GPIO9_INT
30000000 l       *ABS*	00000000 DMA_BASE_UNBUF
40000000 l       *ABS*	00000000 DMA_BASE_BUF
40000000 l       *ABS*	00000000 DMA_BASE
00000004 l       *ABS*	00000000 DMA_ADRS
00000008 l       *ABS*	00000000 DMA_ADRT
0000000c l       *ABS*	00000000 DMA_DESC
00000010 l       *ABS*	00000000 DMA_CTRL
00000014 l       *ABS*	00000000 DMA_STAT
00000018 l       *ABS*	00000000 DMA_GCTL
0000001c l       *ABS*	00000000 DMA_CRCC
00000020 l       *ABS*	00000000 DMA_CRCR
00000024 l       *ABS*	00000000 DMA_TMTV
00000028 l       *ABS*	00000000 DMA_SCTL
00000040 l       *ABS*	00000000 DMA_STAT0
00000044 l       *ABS*	00000000 DMA_STAT1
00000048 l       *ABS*	00000000 DMA_STAT2
0000004c l       *ABS*	00000000 DMA_STAT3
00000050 l       *ABS*	00000000 DMA_STAT4
00000054 l       *ABS*	00000000 DMA_STAT5
00000058 l       *ABS*	00000000 DMA_STAT6
0000005c l       *ABS*	00000000 DMA_STAT7
00000104 l       *ABS*	00000000 DMA_AD2S
00000108 l       *ABS*	00000000 DMA_AD2T
0000010c l       *ABS*	00000000 DMA_DES2
00000180 l       *ABS*	00000000 DMA_CRCT
f0000000 l       *ABS*	00000000 PL340_BASE_UNBUF
e0000000 l       *ABS*	00000000 PL340_BASE_BUF
e0000000 l       *ABS*	00000000 PL340_BASE
00000000 l       *ABS*	00000000 MC_STAT
00000004 l       *ABS*	00000000 MC_CMD
00000008 l       *ABS*	00000000 MC_DIRC
0000000c l       *ABS*	00000000 MC_MCFG
00000010 l       *ABS*	00000000 MC_REFP
00000014 l       *ABS*	00000000 MC_CASL
00000018 l       *ABS*	00000000 MC_DQSS
0000001c l       *ABS*	00000000 MC_MRD
00000020 l       *ABS*	00000000 MC_RAS
00000024 l       *ABS*	00000000 MC_RC
00000028 l       *ABS*	00000000 MC_RCD
0000002c l       *ABS*	00000000 MC_RFC
00000030 l       *ABS*	00000000 MC_RP
00000034 l       *ABS*	00000000 MC_RRD
00000038 l       *ABS*	00000000 MC_WR
0000003c l       *ABS*	00000000 MC_WTR
00000040 l       *ABS*	00000000 MC_XP
00000044 l       *ABS*	00000000 MC_XSR
00000048 l       *ABS*	00000000 MC_ESR
0000004c l       *ABS*	00000000 MC_MCFG2
00000050 l       *ABS*	00000000 MC_MCFG3
00000100 l       *ABS*	00000000 MC_QOS0
00000104 l       *ABS*	00000000 MC_QOS1
00000108 l       *ABS*	00000000 MC_QOS2
0000010c l       *ABS*	00000000 MC_QOS3
00000110 l       *ABS*	00000000 MC_QOS4
00000114 l       *ABS*	00000000 MC_QOS5
00000118 l       *ABS*	00000000 MC_QOS6
0000011c l       *ABS*	00000000 MC_QOS7
00000120 l       *ABS*	00000000 MC_QOS8
00000124 l       *ABS*	00000000 MC_QOS9
00000128 l       *ABS*	00000000 MC_QOS10
0000012c l       *ABS*	00000000 MC_QOS11
00000130 l       *ABS*	00000000 MC_QOS12
00000134 l       *ABS*	00000000 MC_QOS13
00000138 l       *ABS*	00000000 MC_QOS14
0000013c l       *ABS*	00000000 MC_QOS15
00000200 l       *ABS*	00000000 MC_CCFG0
00000204 l       *ABS*	00000000 MC_CCFG1
00000208 l       *ABS*	00000000 MC_CCFG2
0000020c l       *ABS*	00000000 MC_CCFG3
00000300 l       *ABS*	00000000 DLL_STATUS
00000304 l       *ABS*	00000000 DLL_CONFIG0
00000308 l       *ABS*	00000000 DLL_CONFIG1
f1000000 l       *ABS*	00000000 RTR_BASE_UNBUF
e1000000 l       *ABS*	00000000 RTR_BASE_BUF
e1000000 l       *ABS*	00000000 RTR_BASE
00000000 l       *ABS*	00000000 RTR_CONTROL
00000004 l       *ABS*	00000000 RTR_STATUS
00000008 l       *ABS*	00000000 RTR_EHDR
0000000c l       *ABS*	00000000 RTR_EKEY
00000010 l       *ABS*	00000000 RTR_EDAT
00000014 l       *ABS*	00000000 RTR_ESTAT
00000018 l       *ABS*	00000000 RTR_DHDR
0000001c l       *ABS*	00000000 RTR_DKEY
00000020 l       *ABS*	00000000 RTR_DDAT
00000024 l       *ABS*	00000000 RTR_DLINK
00000028 l       *ABS*	00000000 RTR_DSTAT
0000002c l       *ABS*	00000000 RTR_DGEN
00000084 l       *ABS*	00000000 RTR_FR
00000200 l       *ABS*	00000000 RTR_DGF0
00000204 l       *ABS*	00000000 RTR_DGF1
00000208 l       *ABS*	00000000 RTR_DGF2
0000020c l       *ABS*	00000000 RTR_DGF3
00000210 l       *ABS*	00000000 RTR_DGF4
00000214 l       *ABS*	00000000 RTR_DGF5
00000218 l       *ABS*	00000000 RTR_DGF6
0000021c l       *ABS*	00000000 RTR_DGF7
00000220 l       *ABS*	00000000 RTR_DGF8
00000224 l       *ABS*	00000000 RTR_DGF9
00000228 l       *ABS*	00000000 RTR_DGF10
0000022c l       *ABS*	00000000 RTR_DGF11
00000230 l       *ABS*	00000000 RTR_DGF12
00000234 l       *ABS*	00000000 RTR_DGF13
00000238 l       *ABS*	00000000 RTR_DGF14
0000023c l       *ABS*	00000000 RTR_DGF15
00000300 l       *ABS*	00000000 RTR_DGC0
00000304 l       *ABS*	00000000 RTR_DGC1
00000308 l       *ABS*	00000000 RTR_DGC2
0000030c l       *ABS*	00000000 RTR_DGC3
00000310 l       *ABS*	00000000 RTR_DGC4
00000314 l       *ABS*	00000000 RTR_DGC5
00000318 l       *ABS*	00000000 RTR_DGC6
0000031c l       *ABS*	00000000 RTR_DGC7
00000320 l       *ABS*	00000000 RTR_DGC8
00000324 l       *ABS*	00000000 RTR_DGC9
00000328 l       *ABS*	00000000 RTR_DGC10
0000032c l       *ABS*	00000000 RTR_DGC11
00000330 l       *ABS*	00000000 RTR_DGC12
00000334 l       *ABS*	00000000 RTR_DGC13
00000338 l       *ABS*	00000000 RTR_DGC14
0000033c l       *ABS*	00000000 RTR_DGC15
00000f00 l       *ABS*	00000000 RTR_TST1
00000f04 l       *ABS*	00000000 RTR_TST2
00002000 l       *ABS*	00000000 P2P_TABLE_SIZE
00000400 l       *ABS*	00000000 MC_TABLE_SIZE
00000018 l       *ABS*	00000000 MC_RAM_WIDTH
00ffffff l       *ABS*	00000000 MC_RAM_MASK
00000008 l       *ABS*	00000000 P2P_EPW
00000003 l       *ABS*	00000000 P2P_LOG_EPW
00000007 l       *ABS*	00000000 P2P_EMASK
00000003 l       *ABS*	00000000 P2P_BPE
00000007 l       *ABS*	00000000 P2P_BMASK
00db6db6 l       *ABS*	00000000 P2P_INIT
e1004000 l       *ABS*	00000000 RTR_MCRAM_BASE
e1005000 l       *ABS*	00000000 RTR_MCRAM_TOP
e1008000 l       *ABS*	00000000 RTR_MCKEY_BASE
e1009000 l       *ABS*	00000000 RTR_MCKEY_TOP
e100c000 l       *ABS*	00000000 RTR_MCMASK_BASE
e100d000 l       *ABS*	00000000 RTR_MCMASK_TOP
e1010000 l       *ABS*	00000000 RTR_P2P_BASE
e1018000 l       *ABS*	00000000 RTR_P2P_TOP
00000020 l       *ABS*	00000000 MC_CAM_WIDTH
f2000000 l       *ABS*	00000000 SYSCTL_BASE_UNBUF
e2000000 l       *ABS*	00000000 SYSCTL_BASE_BUF
e2000000 l       *ABS*	00000000 SYSCTL_BASE
5ec00000 l       *ABS*	00000000 SC_CODE
59111012 l       *ABS*	00000000 CHIP_ID_CODE
00000000 l       *ABS*	00000000 SC_CHIP_ID
00000004 l       *ABS*	00000000 SC_CPU_DIS
00000008 l       *ABS*	00000000 SC_SET_IRQ
0000000c l       *ABS*	00000000 SC_CLR_IRQ
00000010 l       *ABS*	00000000 SC_SET_OK
00000010 l       *ABS*	00000000 SC_CPU_OK
00000014 l       *ABS*	00000000 SC_CLR_OK
00000018 l       *ABS*	00000000 SC_SOFT_RST_L
0000001c l       *ABS*	00000000 SC_HARD_RST_L
00000020 l       *ABS*	00000000 SC_SUBS_RST_L
00000024 l       *ABS*	00000000 SC_SOFT_RST_P
00000028 l       *ABS*	00000000 SC_HARD_RST_P
0000002c l       *ABS*	00000000 SC_SUBS_RST_P
00000030 l       *ABS*	00000000 SC_RST_CODE
00000034 l       *ABS*	00000000 SC_MON_ID
00000038 l       *ABS*	00000000 SC_MISC_CTRL
0000003c l       *ABS*	00000000 GPIO_RES
00000040 l       *ABS*	00000000 GPIO_PORT
00000044 l       *ABS*	00000000 GPIO_DIR
00000048 l       *ABS*	00000000 GPIO_SET
0000004c l       *ABS*	00000000 GPIO_CLR
00000048 l       *ABS*	00000000 GPIO_READ
00000050 l       *ABS*	00000000 SC_PLL1
00000054 l       *ABS*	00000000 SC_PLL2
00000058 l       *ABS*	00000000 SC_FLAG
00000058 l       *ABS*	00000000 SC_SETFLAG
0000005c l       *ABS*	00000000 SC_CLRFLAG
00000060 l       *ABS*	00000000 SC_CLKMUX
00000064 l       *ABS*	00000000 SC_SLEEP
00000068 l       *ABS*	00000000 SC_TS0
0000006c l       *ABS*	00000000 SC_TS1
00000070 l       *ABS*	00000000 SC_TS2
00000080 l       *ABS*	00000000 SC_ARB0
00000100 l       *ABS*	00000000 SC_TAS0
00000180 l       *ABS*	00000000 SC_TAC0
00000200 l       *ABS*	00000000 SC_LINK_DIS
00000000 l       *ABS*	00000000 RST_POR
00000001 l       *ABS*	00000000 RST_WDT
00000002 l       *ABS*	00000000 RST_USER
00000003 l       *ABS*	00000000 RST_SW
00000004 l       *ABS*	00000000 RST_WDI
f3000000 l       *ABS*	00000000 WDOG_BASE_UNBUF
e3000000 l       *ABS*	00000000 WDOG_BASE_BUF
e3000000 l       *ABS*	00000000 WDOG_BASE
00000000 l       *ABS*	00000000 WD_LOAD
00000004 l       *ABS*	00000000 WD_COUNT
00000008 l       *ABS*	00000000 WD_CTRL
0000000c l       *ABS*	00000000 WD_INTCLR
00000010 l       *ABS*	00000000 WD_RAWINT
00000014 l       *ABS*	00000000 WD_MSKINT
00000c00 l       *ABS*	00000000 WD_LOCK
1acce551 l       *ABS*	00000000 WD_CODE
00000001 l       *ABS*	00000000 WD_INT_B
00000002 l       *ABS*	00000000 WD_RST_B
f4000000 l       *ABS*	00000000 ETH_BASE_UNBUF
e4000000 l       *ABS*	00000000 ETH_BASE_BUF
e4000000 l       *ABS*	00000000 ETH_BASE
e4000000 l       *ABS*	00000000 ETH_TX_BASE
00000600 l       *ABS*	00000000 ETH_TX_SIZE
e4000600 l       *ABS*	00000000 ETH_TX_TOP
e4004000 l       *ABS*	00000000 ETH_RX_BASE
00000c00 l       *ABS*	00000000 ETH_RX_SIZE
e4004c00 l       *ABS*	00000000 ETH_RX_TOP
e4008000 l       *ABS*	00000000 ETH_RX_DESC_RAM
e400c000 l       *ABS*	00000000 ETH_REGS
00000000 l       *ABS*	00000000 ETH_CONTROL
00000004 l       *ABS*	00000000 ETH_STATUS
00000008 l       *ABS*	00000000 ETH_TX_LEN
0000000c l       *ABS*	00000000 ETH_TX_CMD
00000010 l       *ABS*	00000000 ETH_RX_CMD
00000014 l       *ABS*	00000000 ETH_MAC_LO
00000018 l       *ABS*	00000000 ETH_MAC_HI
0000001c l       *ABS*	00000000 ETH_PHY_CTRL
00000020 l       *ABS*	00000000 ETH_INT_CLR
00000024 l       *ABS*	00000000 ETH_RX_BUF_RP
0000002c l       *ABS*	00000000 ETH_RX_DESC_RP
00000001 l       *ABS*	00000000 ETH_TX_CLR
00000010 l       *ABS*	00000000 ETH_RX_CLR
00000001 l       *ABS*	00000000 PHY_CTRL_NRST
00000002 l       *ABS*	00000000 PHY_CTRL_DIN
00000004 l       *ABS*	00000000 PHY_CTRL_DOUT
00000008 l       *ABS*	00000000 PHY_CTRL_OE
00000010 l       *ABS*	00000000 PHY_CTRL_CLK
00000000 l       *ABS*	00000000 PKT_MC
00400000 l       *ABS*	00000000 PKT_P2P
00800000 l       *ABS*	00000000 PKT_NN
00a00000 l       *ABS*	00000000 PKT_NND
00c00000 l       *ABS*	00000000 PKT_FR
00020000 l       *ABS*	00000000 PKT_PL
00020000 l       *ABS*	00000000 PKT_MC_PL
00420000 l       *ABS*	00000000 PKT_P2P_PL
00820000 l       *ABS*	00000000 PKT_NN_PL
00c20000 l       *ABS*	00000000 PKT_FR_PL
0000000a l       *ABS*	00000000 CLK_XTAL_MHZ
0007011a l       *ABS*	00000000 PLL_260
0007011e l       *ABS*	00000000 PLL_300
00070121 l       *ABS*	00000000 PLL_330
00070128 l       *ABS*	00000000 PLL_400
00000050 l       *ABS*	00000000 PLL_LOCK_TIME
809488a5 l       *ABS*	00000000 PLL_CLK_SEL
00000020 l       *ABS*	00000000 SERIAL_NCS
00000010 l       *ABS*	00000000 SERIAL_CLK
00000008 l       *ABS*	00000000 SERIAL_SI
00000004 l       *ABS*	00000000 SERIAL_SO
00000038 l       *ABS*	00000000 SERIAL_OE
80000000 l       *ABS*	00000000 SDRAM_TQ
40000000 l       *ABS*	00000000 SDRAM_DPD
20000000 l       *ABS*	00000000 SDRAM_HERE
08000000 l       *ABS*	00000000 JTAG_NTRST
04000000 l       *ABS*	00000000 JTAG_TMS
02000000 l       *ABS*	00000000 JTAG_TDI
01000000 l       *ABS*	00000000 JTAG_TCK
00100000 l       *ABS*	00000000 JTAG_RTCK
00080000 l       *ABS*	00000000 JTAG_TDO
00008000 l       *ABS*	00000000 JTAG_INT
00000001 l       *ABS*	00000000 LED_0
00000010 l       *ABS*	00000000 MODE_USER
00000011 l       *ABS*	00000000 MODE_FIQ
00000012 l       *ABS*	00000000 MODE_IRQ
00000013 l       *ABS*	00000000 MODE_SVC
00000017 l       *ABS*	00000000 MODE_ABT
0000001b l       *ABS*	00000000 MODE_UND
0000001f l       *ABS*	00000000 MODE_SYS
00000020 l       *ABS*	00000000 THUMB_BIT
00000080 l       *ABS*	00000000 IMASK_IRQ
00000040 l       *ABS*	00000000 IMASK_FIQ
000000c0 l       *ABS*	00000000 IMASK_ALL
00000001 l       *ABS*	00000000 SARK_EVENT
00000180 l       *ABS*	00000000 SVC_STACK
00000100 l       *ABS*	00000000 IRQ_STACK
00000100 l       *ABS*	00000000 FIQ_STACK
00000004 l       *ABS*	00000000 NUM_SDP_MSGS
0000000f l       *ABS*	00000000 SARK_SLOT
00000010 l       *ABS*	00000000 INIT_EVENTS
deaddead l       *ABS*	00000000 DEAD_WORD
00000001 l       *ABS*	00000000 APLX_ACOPY
00000002 l       *ABS*	00000000 APLX_RCOPY
00000003 l       *ABS*	00000000 APLX_FILL
00000004 l       *ABS*	00000000 APLX_EXEC
000000ff l       *ABS*	00000000 APLX_END
00000010 l       *ABS*	00000000 APLX_ENTRY_SIZE
00000040 l       *ABS*	00000000 APLX_BUF_SIZE
00007fc0 l       *ABS*	00000000 APLX_BUFFER
000000ff l       *ABS*	00000000 TAG_NONE
00000000 l       *ABS*	00000000 TAG_HOST
00000001 l       *ABS*	00000000 RTR_ALLOC_FIRST
00000400 l       *ABS*	00000000 RTR_ALLOC_LAST
000003ff l       *ABS*	00000000 RTR_ALLOC_MAX
00000001 l       *ABS*	00000000 ALLOC_LOCK
00000002 l       *ABS*	00000000 ALLOC_ID
00000005 l       *ABS*	00000000 A_LOCK_SEMA
00000001 l       *ABS*	00000000 A_RTE_RESET
00000002 l       *ABS*	00000000 A_RTE_UNDEF
00000003 l       *ABS*	00000000 A_RTE_SVC
00000004 l       *ABS*	00000000 A_RTE_PABT
00000005 l       *ABS*	00000000 A_RTE_DABT
00000006 l       *ABS*	00000000 A_RTE_IRQ
00000007 l       *ABS*	00000000 A_RTE_FIQ
00000008 l       *ABS*	00000000 A_RTE_VIC
00000002 l       *ABS*	00000000 A_STATE_RTE
00000006 l       *ABS*	00000000 EVENT_COUNT
00000000 l       *ABS*	00000000 CMD_VER
00000001 l       *ABS*	00000000 CMD_RUN
00000002 l       *ABS*	00000000 CMD_READ
00000003 l       *ABS*	00000000 CMD_WRITE
00000004 l       *ABS*	00000000 CMD_APLX
00000005 l       *ABS*	00000000 CMD_FILL
00000010 l       *ABS*	00000000 CMD_REMAP
00000011 l       *ABS*	00000000 CMD_LINK_READ
00000012 l       *ABS*	00000000 CMD_LINK_WRITE
00000013 l       *ABS*	00000000 CMD_AR
00000014 l       *ABS*	00000000 CMD_NNP
00000016 l       *ABS*	00000000 CMD_SIG
00000017 l       *ABS*	00000000 CMD_FFD
00000018 l       *ABS*	00000000 CMD_AS
00000019 l       *ABS*	00000000 CMD_LED
0000001a l       *ABS*	00000000 CMD_IPTAG
0000001b l       *ABS*	00000000 CMD_SROM
0000001c l       *ABS*	00000000 CMD_ALLOC
0000001d l       *ABS*	00000000 CMD_RTR
0000001f l       *ABS*	00000000 CMD_INFO
00000040 l       *ABS*	00000000 CMD_TUBE
00000080 l       *ABS*	00000000 RC_OK
00000081 l       *ABS*	00000000 RC_LEN
00000082 l       *ABS*	00000000 RC_SUM
00000083 l       *ABS*	00000000 RC_CMD
00000084 l       *ABS*	00000000 RC_ARG
00000085 l       *ABS*	00000000 RC_PORT
00000086 l       *ABS*	00000000 RC_TIMEOUT
00000087 l       *ABS*	00000000 RC_ROUTE
00000088 l       *ABS*	00000000 RC_CPU
00000089 l       *ABS*	00000000 RC_DEAD
0000008a l       *ABS*	00000000 RC_BUF
0000008b l       *ABS*	00000000 RC_P2P_NOREPLY
0000008c l       *ABS*	00000000 RC_P2P_REJECT
0000008d l       *ABS*	00000000 RC_P2P_BUSY
0000008e l       *ABS*	00000000 RC_P2P_TIMEOUT
0000008f l       *ABS*	00000000 RC_PKT_TX
00000000 l       *ABS*	00000000 TYPE_BYTE
00000001 l       *ABS*	00000000 TYPE_HALF
00000002 l       *ABS*	00000000 TYPE_WORD
00000008 l       *ABS*	00000000 NUM_SDP_PORTS
00000005 l       *ABS*	00000000 PORT_SHIFT
000000e0 l       *ABS*	00000000 PORT_MASK
0000001f l       *ABS*	00000000 CPU_MASK
000000ff l       *ABS*	00000000 PORT_ETH
00000100 l       *ABS*	00000000 SDP_BUF_SIZE
00000080 l       *ABS*	00000000 VCPU_SIZE
0000002c l       *ABS*	00000000 VCPU_RT_CODE
0000002e l       *ABS*	00000000 VCPU_CPU_STATE
0000002f l       *ABS*	00000000 VCPU_APP_ID
0000001c l       *ABS*	00000000 SARK_MSG_INT
0000001d l       *ABS*	00000000 SARK_SIG_INT
00000000 l       *ABS*	00000000 SARK_VIRT_CPU
00000008 l       *ABS*	00000000 SARK_RANDOM
00000030 l       *ABS*	00000000 SARK_CPU_CLK
00000020 l       *ABS*	00000000 SV_SSIZE
00000060 l       *ABS*	00000000 SV_USIZE
00000080 l       *ABS*	00000000 SV_ISIZE
00000020 l       *ABS*	00000000 SV_VSIZE
00000040 l       *ABS*	00000000 SV_RSIZE
00001000 l       *ABS*	00000000 SV_SIZE
e5007fe0 l       *ABS*	00000000 SV_SROM
e5007f80 l       *ABS*	00000000 SV_UBASE
e5007f00 l       *ABS*	00000000 SV_IBASE
e5007f00 l       *ABS*	00000000 SV_SV
00000100 l       *ABS*	00000000 SYS_BOOT
e5007000 l       *ABS*	00000000 SYS_USER_TOP
e5000100 l       *ABS*	00000000 SYS_USER_BASE
e5007ee0 l       *ABS*	00000000 SV_VECTORS
e5007ea0 l       *ABS*	00000000 SV_RANDOM
e5007000 l       *ABS*	00000000 SV_VCPU
e5007900 l       *ABS*	00000000 SV_SPARE
000005a0 l       *ABS*	00000000 SPARE_SIZE
e5007fe0 l       *ABS*	00000000 SROM_FLAG_BASE
e5007f80 l       *ABS*	00000000 STATUS_MAP_BASE
e5007ee0 l       *ABS*	00000000 RST_BLOCK_BASE
00008000 l       *ABS*	00000000 SRF_PRESENT
000000f0 l       *ABS*	00000000 SRF_HW_VER
00000008 l       *ABS*	00000000 SRF_PHY_INIT
00000004 l       *ABS*	00000000 SRF_PHY_RST
00000002 l       *ABS*	00000000 SRF_PHY_WAIT
00000001 l       *ABS*	00000000 SRF_ETH
00000000 l       *ABS*	00000000 SRF_NONE
00000020 l       RO_DATA	00000000 reset_vec
00000004 l       RO_DATA	00000000 undef
00000024 l       RO_DATA	00000000 undef_vec
00000028 l       RO_DATA	00000000 svc_vec
0000002c l       RO_DATA	00000000 pabt_vec
00000030 l       RO_DATA	00000000 dabt_vec
0000003c l       RO_DATA	00000000 fiq_vec
00000078 l       RO_DATA	00000000 reset_entry
000000d8 l       RO_DATA	00000000 undef_error
000000e0 l       RO_DATA	00000000 svc_error
000000e8 l       RO_DATA	00000000 pabt_error
000000f0 l       RO_DATA	00000000 dabt_error
00000034 l       RO_DATA	00000000 aplx_proc
00000038 l       RO_DATA	00000000 irq_vec
000000f8 l       RO_DATA	00000000 irq_error
00000100 l       RO_DATA	00000000 fiq_error
00000040 l       RO_DATA	00000000 svc_stack
00000042 l       RO_DATA	00000000 irq_stack
00000044 l       RO_DATA	00000000 fiq_stack
00000046 l       RO_DATA	00000000 stack_size
00000048 l       RO_DATA	00000000 code_top
0000004c l       RO_DATA	00000000 heap_base
00000050 l       RO_DATA	00000000 stack_top
00000054 l       RO_DATA	00000000 stack_fill
00000058 l       RO_DATA	00000000 num_msgs
00000059 l       RO_DATA	00000000 sark_slot
0000005a l       RO_DATA	00000000 num_events
0000005b l       RO_DATA	00000000 api
0000005c l       RO_DATA	00000000 app_id
0000005d l       RO_DATA	00000000 app_flags
0000005e l       RO_DATA	00000000 __PAD
00000060 l       RO_DATA	00000000 event_vec
000000d0 l       RO_DATA	00000000 reset_error
00000114 l       RO_DATA	00000000 exc_error
00000138 l       RO_DATA	00000000 cc_error
000001fc l       RO_DATA	00000000 lg1
00000238 l       RO_DATA	00000000 ws1
00000298 l       RO_DATA	00000000 wc2
00000280 l       RO_DATA	00000000 wc1
000002c4 l       RO_DATA	00000000 delay1
0000038c l       RO_DATA	00000000 aplx_buffer
00000390 l       RO_DATA	00000000 aplx_loader
0000037c l       RO_DATA	00000000 aplx_l0
000003a8 l       RO_DATA	00000000 aplx_copy
000003a4 l       RO_DATA	00000000 aplx_rcopy
000003b6 l       RO_DATA	00000000 aplx_fill
000003c6 l       RO_DATA	00000000 aplx_exec
000003bc l       RO_DATA	00000000 aplx_l1
00000000 l    df *ABS*	00000000 sark_base.c
00000000 l    df *ABS*	00000000 sark_event.c
00000000 l    df *ABS*	00000000 sark_timer.c
00000000 l    df *ABS*	00000000 sark_hw.c
00000000 l    df *ABS*	00000000 sark_isr.c
00000000 l    df *ABS*	00000000 sark_alloc.c
00000000 l    df *ABS*	00000000 sark_io.c
000044b0 l     F RO_DATA	0000003c io_buf_init
000045d8 l     F RO_DATA	000000ba io_put_fixed
004001e8 l     O ZI_DATA	00000004 buf_ptr
004001ec l     O ZI_DATA	00000004 io_buf
004001f0 l     O ZI_DATA	00000004 io_msg
004001f4 l     O ZI_DATA	00000004 sp_ptr
00006211 l     O RO_DATA	00000011 hex
00000000 l    df *ABS*	00000000 sark_pkt.c
00000000 l    df *ABS*	00000000 sark_div0.c
00000000 l    df *ABS*	00000000 connection_builder.cpp
000003cc l     F RO_DATA	00000028 _ZN12_GLOBAL__N_1L18handle_sdp_messageEjj
000003f4 l     F RO_DATA	000001b8 _ZN12_GLOBAL__N_1L13send_n_delaysEmPtmmm
000005ac l     F RO_DATA	00001544 _ZN12_GLOBAL__N_19app_startEjj
00001d48 l     F RO_DATA	0000001c _GLOBAL__sub_I__ZN17ConnectionBuilder29data_specification_get_regionEmPm
0040000c l     O ZI_DATA	00000001 _ZN12_GLOBAL__N_1L23delay_response_receivedE
00400010 l     O ZI_DATA	00000124 _ZN12_GLOBAL__N_1L13delay_messageE
00400134 l     O ZI_DATA	00000018 _ZN12_GLOBAL__N_124g_MatrixGeneratorFactoryE
0040014c l     O ZI_DATA	00000030 _ZN12_GLOBAL__N_127g_ConnectorGeneratorFactoryE
0040017c l     O ZI_DATA	00000058 _ZN12_GLOBAL__N_123g_ParamGeneratorFactoryE
004001d4 l     O ZI_DATA	00000004 _ZN12_GLOBAL__N_123g_MatrixGeneratorBufferE
004001d8 l     O ZI_DATA	00000004 _ZN12_GLOBAL__N_126g_ConnectorGeneratorBufferE
004001dc l     O ZI_DATA	00000004 _ZN12_GLOBAL__N_127g_DelayParamGeneratorBufferE
004001e0 l     O ZI_DATA	00000004 _ZN12_GLOBAL__N_128g_WeightParamGeneratorBufferE
004001e4 l     O ZI_DATA	00000004 _ZN12_GLOBAL__N_115pre_delay_pairsE
00000000 l    df *ABS*	00000000 connector_generator.cpp
00000000 l    df *ABS*	00000000 matrix_generator.cpp
00000000 l    df *ABS*	00000000 param_generator.cpp
00000000 l    df *ABS*	00000000 kernel_maths.cpp
00000000 l    df *ABS*	00000000 normal.cpp
0000602c l     O RO_DATA	00000084 _ZN12_GLOBAL__N_1L11g_LowValuesE
000060b0 l     O RO_DATA	000000dc _ZN12_GLOBAL__N_1L13g_PolynomialsE
0000618c l     O RO_DATA	0000002c _ZN12_GLOBAL__N_1L14g_LeadingTermsE
000061b8 l     O RO_DATA	00000018 _ZN12_GLOBAL__N_1L8g_OffsetE
000061d0 l     O RO_DATA	00000018 _ZN12_GLOBAL__N_1L12g_MultiplierE
00000000 l    df *ABS*	00000000 spin1_api.c
004001f8 l     O ZI_DATA	00000004 paused
004001fc l     O ZI_DATA	00000004 resume_sync
00400200 l     O ZI_DATA	00000004 run
00400204 l     O ZI_DATA	00000320 task_queue
00400524 l     O ZI_DATA	00000004 timer_phase
00400528 l     O ZI_DATA	00000004 timer_tick
00000000 l    df *ABS*	00000000 spin1_isr.c
00000000 l    df *ABS*	00000000 sark_build.c
00005500 l     F RO_DATA	00000008 __spin1_start_from_arm
00005508 l     F RO_DATA	00000008 __io_printf_from_arm
00003798 g     F RO_DATA	00000044 _ZN17ConnectionBuilder14ParamGenerator11ExponentialC2ERPm
00400604 g     O ZI_DATA	00000004 old_vector
00004f14 g     F RO_DATA	0000000a spin1_start
000001e8 g     F RO_DATA	00000000 sark_lock_get
00003108 g     F RO_DATA	000001b0 _ZNK17ConnectionBuilder14ParamGenerator10ConvKernel8GenerateEjjmmPtRN6Common6Random10MarsKiss64ERA512_l
00005058 g     F RO_DATA	00000030 sark_pre_main
00003c38 g     F RO_DATA	00000034 sark_shmsg_get
00002f68 g     F RO_DATA	000001a0 _ZNK17ConnectionBuilder14ParamGenerator11Exponential8GenerateEjjmmPtRN6Common6Random10MarsKiss64ERA512_l
00004f38 g     F RO_DATA	0000000c spin1_get_core_id
00001cc8  w    F RO_DATA	00000020 _ZN17ConnectionBuilder18ConnectorGenerator8OneToOne6CreateERPmPv
00005140 g     F RO_DATA	00000074 cc_fr_ready_isr
000001b8 g     F RO_DATA	00000000 spin1_int_enable
00000040 g       *ABS*	00000000 RO_FROM
00000800 g       *ABS*	00000000 STACK_SIZE
00000362 g     F RO_DATA	00000000 sark_bx
00004394 g     F RO_DATA	000000a4 sark_xfree
00004c48 g     F RO_DATA	00000088 spin1_callback_on
00001d64 g     F RO_DATA	00000070 _ZN17ConnectionBuilder18ConnectorGenerator8AllToAll8GenerateEmmmmmmRN6Common6Random10MarsKiss64ERA512_t
00000258 g     F RO_DATA	00000000 sark_msg_cpy
00001ca8  w    F RO_DATA	00000020 _ZN17ConnectionBuilder18ConnectorGenerator16FixedProbability6CreateERPmPv
00003530 g     F RO_DATA	0000009c _ZN17ConnectionBuilder14ParamGenerator10ConvKernelC1ERPm
00002ebc g     F RO_DATA	000000ac _ZNK17ConnectionBuilder14ParamGenerator7Uniform8GenerateEjjmmPtRN6Common6Random10MarsKiss64ERA512_l
00004f26 g     F RO_DATA	00000012 spin1_memcpy
000041bc g     F RO_DATA	0000003c event_alloc
00004cf4 g     F RO_DATA	0000006c clean_up
00003bc8 g     F RO_DATA	0000001e sark_block_init
00005380 g     F RO_DATA	00000088 timer1_isr
00004288 g     F RO_DATA	00000028 sark_fiq_han
00000010 g       *ABS*	00000000 APLX_ENTRY
00003c18 g     F RO_DATA	00000020 sark_msg_free
00005448 g     F RO_DATA	00000068 soft_int_isr
00001c28  w    F RO_DATA	00000020 _ZN17ConnectionBuilder14ParamGenerator10ConvKernel6CreateERPmPv
00003378 g     F RO_DATA	000000e8 _ZNK17ConnectionBuilder14ParamGenerator13NormalClipped8GenerateEjjmmPtRN6Common6Random10MarsKiss64ERA512_l
00002a80 g     F RO_DATA	00000014 _Z6memcpyPvPKvj
00005b08 g     O RO_DATA	0000000c _ZTVN17ConnectionBuilder18ConnectorGenerator6KernelE
00001c68  w    F RO_DATA	00000020 _ZN17ConnectionBuilder18ConnectorGenerator7Mapping6CreateERPmPv
0000492c g     F RO_DATA	00000028 configure_dma_controller
00003460 g     F RO_DATA	000000d0 _ZNK17ConnectionBuilder14ParamGenerator23NormalClippedToBoundary8GenerateEjjmmPtRN6Common6Random10MarsKiss64ERA512_l
00001b64 g     F RO_DATA	00000064 c_main
00003fb8 g     F RO_DATA	00000168 sark_int
00002064 g     F RO_DATA	00000200 _ZN17ConnectionBuilder18ConnectorGenerator6Kernel8GenerateEmmmmmmRN6Common6Random10MarsKiss64ERA512_t
00005af0 g     O RO_DATA	0000000c _ZTVN17ConnectionBuilder18ConnectorGenerator8AllToAllE
00004988 g     F RO_DATA	0000016c configure_vic
00000300 g     F RO_DATA	00000000 sark_int_han
00004120 g     F RO_DATA	00000058 event_wait
00001bc8  w    F RO_DATA	00000020 _ZN17ConnectionBuilder14ParamGenerator11Exponential6CreateERPmPv
00003fa4 g     F RO_DATA	00000014 sark_wait
000001d8 g     F RO_DATA	00000000 spin1_mode_restore
000001a8 g     F RO_DATA	00000000 spin1_irq_disable
00003f94 g     F RO_DATA	00000010 sark_cmd_fill
00003668 g     F RO_DATA	0000004c _ZN17ConnectionBuilder14ParamGenerator6NormalC1ERPm
00005dec g     O RO_DATA	0000000c _ZTVN17ConnectionBuilder14ParamGenerator6NormalE
00004fec g     F RO_DATA	0000006c spin1_schedule_callback
00005b20 g     O RO_DATA	0000000c _ZTVN17ConnectionBuilder18ConnectorGenerator16FixedProbabilityE
000041f8 g     F RO_DATA	00000050 sark_vic_init
00005308 g     F RO_DATA	00000078 dma_done_fiqsr
00001dd4 g     F RO_DATA	00000038 _ZN17ConnectionBuilder18ConnectorGenerator8OneToOne8GenerateEmmmmmmRN6Common6Random10MarsKiss64ERA512_t
0000016c g     F RO_DATA	00000000 cpu_shutdown
000001d8 g     F RO_DATA	00000000 cpu_int_restore
00400608 g     O ZI_DATA	00000048 diagnostics
00410000 g       *ABS*	00000000 STACK_TOP
004008b8 g       ZI_DATA	00000000 HEAP_BASE
00001d28  w    F RO_DATA	00000020 _ZN17ConnectionBuilder15MatrixGenerator6Static6CreateERPmPv
00001c08  w    F RO_DATA	00000020 _ZN17ConnectionBuilder14ParamGenerator7Uniform6CreateERPmPv
000042b0 g     F RO_DATA	000000cc sark_xalloc
00400650 g     O ZI_DATA	00000004 old_enable
00003730 g     F RO_DATA	00000068 _ZN17ConnectionBuilder14ParamGenerator23NormalClippedToBoundaryC1ERPm
00004954 g     F RO_DATA	00000034 configure_timer1
00004438 g     F RO_DATA	0000003c sark_heap_max
00002428 g     F RO_DATA	0000002c _ZN17ConnectionBuilder18ConnectorGenerator8OneToOneC2ERPm
000036b4 g     F RO_DATA	0000007c _ZN17ConnectionBuilder14ParamGenerator13NormalClippedC2ERPm
000035cc g     F RO_DATA	00000044 _ZN17ConnectionBuilder14ParamGenerator8ConstantC1ERPm
00000364 g     F RO_DATA	00000000 __gnu_thumb1_case_uqi
00400654 g     O ZI_DATA	00000004 user_arg1
00003c6c g     F RO_DATA	00000024 sark_shmsg_free
00005afc g     O RO_DATA	0000000c _ZTVN17ConnectionBuilder18ConnectorGenerator7MappingE
00000334 g     F RO_DATA	00000000 schedule
00005e04 g     O RO_DATA	0000000c _ZTVN17ConnectionBuilder14ParamGenerator23NormalClippedToBoundaryE
000051ec g     F RO_DATA	0000008c cc_tx_empty_isr
000035cc g     F RO_DATA	00000044 _ZN17ConnectionBuilder14ParamGenerator8ConstantC2ERPm
0000012c g     F RO_DATA	00000000 rt_error
00003798 g     F RO_DATA	00000044 _ZN17ConnectionBuilder14ParamGenerator11ExponentialC1ERPm
000022a8 g     F RO_DATA	000000a0 _ZN17ConnectionBuilder18ConnectorGenerator7MappingC1ERPm
00005108 g     F RO_DATA	00000038 cc_rx_ready_fiqsr
00004f44 g     F RO_DATA	0000000c spin1_get_chip_id
00002844 g     F RO_DATA	0000023c _ZNK17ConnectionBuilder15MatrixGenerator6Static8WriteRowEPmmmmmlmmmmmRA512_KtRA512_KlS8_
00400004 g     O RW_DATA	00000004 fr_pkt_prio
00003ba4 g     F RO_DATA	00000010 sark_cpu_state
00003610 g     F RO_DATA	00000058 _ZN17ConnectionBuilder14ParamGenerator7UniformC1ERPm
00005cf8  w    O RO_DATA	00000010 _ZTVN17ConnectionBuilder15MatrixGenerator4BaseE
0040052c g     O ZI_DATA	00000001 user_pending
00003668 g     F RO_DATA	0000004c _ZN17ConnectionBuilder14ParamGenerator6NormalC2ERPm
00002e90 g     F RO_DATA	0000002c _ZNK17ConnectionBuilder14ParamGenerator8Constant8GenerateEjjmmPtRN6Common6Random10MarsKiss64ERA512_l
00400008 g     O RW_DATA	00000004 mc_pkt_prio
00002264 g     F RO_DATA	00000044 _ZN17ConnectionBuilder18ConnectorGenerator8AllToAllC1ERPm
00001be8  w    F RO_DATA	00000020 _ZN17ConnectionBuilder14ParamGenerator6Normal6CreateERPmPv
00005088 g     F RO_DATA	0000000a sark_post_main
00006394 g       *ABS*	00000000 RW_FROM
00005dc8 g     O RO_DATA	0000000c _ZTVN17ConnectionBuilder14ParamGenerator10ConvKernelE
000001a8 g     F RO_DATA	00000000 cpu_irq_disable
00003730 g     F RO_DATA	00000068 _ZN17ConnectionBuilder14ParamGenerator23NormalClippedToBoundaryC2ERPm
00002348 g     F RO_DATA	000000e0 _ZN17ConnectionBuilder18ConnectorGenerator6KernelC2ERPm
00000000 g       RO_DATA	00000000 cpu_reset
000002d0 g     F RO_DATA	00000000 sark_div10
00004924 g     F RO_DATA	00000008 spin1_send_sdp_msg
000036b4 g     F RO_DATA	0000007c _ZN17ConnectionBuilder14ParamGenerator13NormalClippedC1ERPm
00000108 g       RO_DATA	00000000 vic_error
00400000 g       *ABS*	00000000 DTCM_BASE
00002428 g     F RO_DATA	0000002c _ZN17ConnectionBuilder18ConnectorGenerator8OneToOneC1ERPm
00005d08 g     O RO_DATA	00000010 _ZTVN17ConnectionBuilder15MatrixGenerator6StaticE
00001e0c g     F RO_DATA	00000100 _ZN17ConnectionBuilder18ConnectorGenerator16FixedProbability8GenerateEmmmmmmRN6Common6Random10MarsKiss64ERA512_t
00004f1e g     F RO_DATA	00000008 spin1_delay_us
00001b54 g     F RO_DATA	00000010 __cxa_pure_virtual
000061e8 g     O RO_DATA	00000010 build_name
00000360  w    F RO_DATA	00000000 sark_config
000024d8 g     F RO_DATA	0000036c _ZNK17ConnectionBuilder15MatrixGenerator7Plastic8WriteRowEPmmmmmlmmmmmRA512_KtRA512_KlS8_
00002348 g     F RO_DATA	000000e0 _ZN17ConnectionBuilder18ConnectorGenerator6KernelC1ERPm
00002ddc g     F RO_DATA	00000004 _ZNK17ConnectionBuilder15MatrixGenerator4Base8TraceIntERA512_lj
00004178 g     F RO_DATA	0000002c event_pause
000061f8 g     O RO_DATA	00000004 build_date
0000020c g     F RO_DATA	00000000 sark_lock_free
0000437c g     F RO_DATA	00000018 sark_alloc
00400000 g       *ABS*	00000000 RW_BASE
0000000c g       ZI_DATA	00000000 RW_LENGTH
000054b0 g     F RO_DATA	00000050 soft_int_fiqsr
00004b60 g     F RO_DATA	000000e8 dispatch
00000190 g     F RO_DATA	00000000 cpu_init_mode
00000268 g     F RO_DATA	00000000 sark_word_cpy
00001ce8  w    F RO_DATA	00000020 _ZN17ConnectionBuilder18ConnectorGenerator8AllToAll6CreateERPmPv
00000040 g       *ABS*	00000000 APLX_SIZE
0000017c g     F RO_DATA	00000000 cpu_sleep
00004494 g     F RO_DATA	0000001c sark_tag_ptr
00400000 g     O RW_DATA	00000004 fiq_event
00400658 g     O ZI_DATA	00000001 leadAp
00400530 g     O ZI_DATA	0000003c sark
00003de8 g     F RO_DATA	00000098 sark_msg_send
000001e0 g     F RO_DATA	00000000 spin1_wfi
00003e80 g     F RO_DATA	00000050 sark_cmd_ver
000024a8 g     F RO_DATA	00000030 _ZNK17ConnectionBuilder15MatrixGenerator7Plastic14GetMaxRowWordsEj
00005dd4 g     O RO_DATA	0000000c _ZTVN17ConnectionBuilder14ParamGenerator8ConstantE
000001e0 g     F RO_DATA	00000000 cpu_wfi
00002dd8 g     F RO_DATA	00000004 _ZNK17ConnectionBuilder15MatrixGenerator4Base9TraceUIntERA512_mj
00002ac4 g     F RO_DATA	00000314 _ZNK17ConnectionBuilder15MatrixGenerator4Base8GenerateEPmmmmmmmmmmmmmmmmPlmPNS_18ConnectorGenerator4BaseEPKNS_14ParamGenerator4BaseESA_RN6Common6Random10MarsKiss64EPtRt
000041a4 g     F RO_DATA	00000018 event_stop
000037dc g     F RO_DATA	0000005c _ZN17ConnectionBuilder11KernelMaths5uidivEttRt
00002de0 g     F RO_DATA	00000054 _ZN17ConnectionBuilder15MatrixGenerator6StaticC1ERPm
00004af4 g     F RO_DATA	00000044 resume
000001c8 g     F RO_DATA	00000000 cpu_int_disable
00001c48  w    F RO_DATA	00000020 _ZN17ConnectionBuilder14ParamGenerator8Constant6CreateERPmPv
00004248 g     F RO_DATA	00000040 sark_vic_set
00001afc g     F RO_DATA	00000058 _ZN17ConnectionBuilder35data_specification_get_data_addressEv
00004474 g     F RO_DATA	0000001e sark_heap_init
000051b4 g     F RO_DATA	00000038 cc_fr_ready_fiqsr
00004cd0 g     F RO_DATA	00000024 spin1_exit
0040056c g     O ZI_DATA	00000098 event
00001af0 g     F RO_DATA	0000000c _ZN17ConnectionBuilder29data_specification_get_regionEmPm
00005514 g       RO_DATA	00000000 __init_array_end
00003f30 g     F RO_DATA	00000064 sark_cmd_write
00005094 g     F RO_DATA	00000074 cc_rx_ready_isr
00004f50 g     F RO_DATA	0000000a spin1_malloc
00003cac  w    F RO_DATA	0000013c sark_init
00003610 g     F RO_DATA	00000058 _ZN17ConnectionBuilder14ParamGenerator7UniformC2ERPm
00003b90  w    F RO_DATA	0000000c rte_handler
00000374 g     F RO_DATA	00000000 sark_aplx
00004d60 g     F RO_DATA	00000078 report_debug
00004694 g     F RO_DATA	00000290 io_printf
0040065c g     O ZI_DATA	00000148 dma_queue
00000234 g     F RO_DATA	00000000 sark_word_set
004007a4 g     O ZI_DATA	00000004 old_select
00003860 g     F RO_DATA	000001c8 _ZN17ConnectionBuilder11KernelMaths17pre_in_post_worldEttttttRsS1_
00004dd8 g     F RO_DATA	00000048 report_warns
00001c88  w    F RO_DATA	00000020 _ZN17ConnectionBuilder18ConnectorGenerator6Kernel6CreateERPmPv
00003838 g     F RO_DATA	00000028 _ZN17ConnectionBuilder11KernelMaths17post_in_pre_worldEttttttRtS1_
00005278 g     F RO_DATA	00000090 dma_done_isr
004007a8 g     O ZI_DATA	00000004 ticks
00002de0 g     F RO_DATA	00000054 _ZN17ConnectionBuilder15MatrixGenerator6StaticC2ERPm
000022a8 g     F RO_DATA	000000a0 _ZN17ConnectionBuilder18ConnectorGenerator7MappingC2ERPm
00000330 g     F RO_DATA	00000000 null_int_han
00005df8 g     O RO_DATA	0000000c _ZTVN17ConnectionBuilder14ParamGenerator13NormalClippedE
00004f5c g     F RO_DATA	00000090 schedule_sysmode
00005408 g     F RO_DATA	00000040 timer1_fiqsr
00001d08  w    F RO_DATA	00000020 _ZN17ConnectionBuilder15MatrixGenerator7Plastic6CreateERPmPv
00000220 g     F RO_DATA	00000000 sark_str_cpy
00004b38 g     F RO_DATA	00000028 resume_wait
0040000c g       *ABS*	00000000 ZI_BASE
00000000 g       *ABS*	00000000 RO_BASE
000001b8 g     F RO_DATA	00000000 cpu_int_enable
004007ac g     O ZI_DATA	00000004 user_arg0
00002454 g     F RO_DATA	0000004c _ZN17ConnectionBuilder18ConnectorGenerator16FixedProbabilityC1ERPm
00003bb4 g     F RO_DATA	00000014 sark_app_lead
00005de0 g     O RO_DATA	0000000c _ZTVN17ConnectionBuilder14ParamGenerator7UniformE
00002e34 g     F RO_DATA	0000005c _ZN17ConnectionBuilder15MatrixGenerator7PlasticC2ERPm
00005d18 g     O RO_DATA	00000010 _ZTVN17ConnectionBuilder15MatrixGenerator7PlasticE
000024a0 g     F RO_DATA	00000008 _ZNK17ConnectionBuilder15MatrixGenerator6Static14GetMaxRowWordsEj
00001f0c g     F RO_DATA	00000158 _ZN17ConnectionBuilder18ConnectorGenerator7Mapping8GenerateEmmmmmmRN6Common6Random10MarsKiss64ERA512_t
00000000 g       *ABS*	00000000 ITCM_BASE
00002e34 g     F RO_DATA	0000005c _ZN17ConnectionBuilder15MatrixGenerator7PlasticC1ERPm
00004e20 g     F RO_DATA	000000f4 start
00003a28 g     F RO_DATA	00000168 _ZN6Common5Maths10NormalU032Em
00002a94 g     F RO_DATA	00000030 _ZN17ConnectionBuilder15MatrixGenerator4BaseC2ERPm
00005510 g       RO_DATA	00000000 __init_array_start
004007b0 g     O ZI_DATA	00000040 callback
00002a94 g     F RO_DATA	00000030 _ZN17ConnectionBuilder15MatrixGenerator4BaseC1ERPm
00003c90 g     F RO_DATA	0000001c sark_call_cpp_constructors
00005e10 g     O RO_DATA	0000000c _ZTVN17ConnectionBuilder14ParamGenerator11ExponentialE
000044ec g     F RO_DATA	000000ec io_put_char
00005b14 g     O RO_DATA	0000000c _ZTVN17ConnectionBuilder18ConnectorGenerator8OneToOneE
000032b8 g     F RO_DATA	000000c0 _ZNK17ConnectionBuilder14ParamGenerator6Normal8GenerateEjjmmPtRN6Common6Random10MarsKiss64ERA512_l
000001c8 g     F RO_DATA	00000000 spin1_int_disable
00002454 g     F RO_DATA	0000004c _ZN17ConnectionBuilder18ConnectorGenerator16FixedProbabilityC2ERPm
00003ed0 g     F RO_DATA	00000060 sark_cmd_read
000008ac g       *ABS*	00000000 ZI_LENGTH
00006364 g       RW_DATA	00000000 RO_LENGTH
00002264 g     F RO_DATA	00000044 _ZN17ConnectionBuilder18ConnectorGenerator8AllToAllC2ERPm
00003b9c g     F RO_DATA	00000006 sark_app_id
00003530 g     F RO_DATA	0000009c _ZN17ConnectionBuilder14ParamGenerator10ConvKernelC2ERPm
00003be8 g     F RO_DATA	00000030 sark_msg_get
000002bc g     F RO_DATA	00000000 sark_delay_us
004007f0 g     O ZI_DATA	000000c8 tx_packet_queue



Disassembly of section RO_DATA:

00000000 <cpu_reset>:
       0:	e59ff018 	ldr	pc, [pc, #24]	; 20 <reset_vec>

00000004 <undef>:
       4:	e59ff018 	ldr	pc, [pc, #24]	; 24 <undef_vec>
       8:	e59ff018 	ldr	pc, [pc, #24]	; 28 <svc_vec>
       c:	e59ff018 	ldr	pc, [pc, #24]	; 2c <pabt_vec>
      10:	e59ff018 	ldr	pc, [pc, #24]	; 30 <dabt_vec>
      14:	ebfffffa 	bl	4 <undef>
      18:	e51ffff0 	ldr	pc, [pc, #-4080]	; fffff030 <ROM_TOP+0x9ff7030>
      1c:	e59ff018 	ldr	pc, [pc, #24]	; 3c <fiq_vec>

00000020 <reset_vec>:
      20:	00000078 	.word	0x00000078

00000024 <undef_vec>:
      24:	000000d8 	.word	0x000000d8

00000028 <svc_vec>:
      28:	000000e0 	.word	0x000000e0

0000002c <pabt_vec>:
      2c:	000000e8 	.word	0x000000e8

00000030 <dabt_vec>:
      30:	000000f0 	.word	0x000000f0

00000034 <aplx_proc>:
      34:	00000375 	.word	0x00000375

00000038 <irq_vec>:
      38:	000000f8 	.word	0x000000f8

0000003c <fiq_vec>:
      3c:	00000100 	.word	0x00000100

00000040 <svc_stack>:
      40:	0060      	.short	0x0060

00000042 <irq_stack>:
      42:	0040      	.short	0x0040

00000044 <fiq_stack>:
      44:	0040      	.short	0x0040

00000046 <stack_size>:
      46:	0800      	.short	0x0800

00000048 <code_top>:
      48:	00006364 	.word	0x00006364

0000004c <heap_base>:
      4c:	004008b8 	.word	0x004008b8

00000050 <stack_top>:
      50:	00410000 	.word	0x00410000

00000054 <stack_fill>:
      54:	deaddead 	.word	0xdeaddead

00000058 <num_msgs>:
      58:	04          	.byte	0x04

00000059 <sark_slot>:
      59:	0f          	.byte	0x0f

0000005a <num_events>:
      5a:	10          	.byte	0x10

0000005b <api>:
	...

0000005c <app_id>:
	...

0000005d <app_flags>:
	...

0000005e <__PAD>:
	...

00000060 <event_vec>:
	...

00000078 <reset_entry>:
      78:	e24f1060 	sub	r1, pc, #96	; 0x60
      7c:	e1c103bc 	strh	r0, [r1, #60]	; 0x3c
      80:	e28f0048 	add	r0, pc, #72	; 0x48
      84:	e5810000 	str	r0, [r1]
      88:	e59f00f4 	ldr	r0, [pc, #244]	; 184 <DMA_CRCT+0x4>
      8c:	ee010f10 	mcr	15, 0, r0, cr1, cr0, {0}
      90:	e321f0d3 	msr	CPSR_c, #211	; 0xd3
      94:	e3a0d902 	mov	sp, #32768	; 0x8000
      98:	fa0000b0 	blx	360 <sark_config>
      9c:	e51fd054 	ldr	sp, [pc, #-84]	; 50 <stack_top>
      a0:	e15f26b2 	ldrh	r2, [pc, #-98]	; 46 <stack_size>
      a4:	e51f1058 	ldr	r1, [pc, #-88]	; 54 <stack_fill>
      a8:	e04d0002 	sub	r0, sp, r2
      ac:	eb000060 	bl	234 <sark_word_set>
      b0:	e1a0000d 	mov	r0, sp
      b4:	fa000efc 	blx	3cac <sark_init>
      b8:	e121f000 	msr	CPSR_c, r0
      bc:	fa000fb8 	blx	3fa4 <sark_wait>
      c0:	fa0013e4 	blx	5058 <sark_pre_main>
      c4:	eb0006a6 	bl	1b64 <c_main>
      c8:	fa0013ee 	blx	5088 <sark_post_main>
      cc:	eb00002a 	bl	17c <cpu_sleep>

000000d0 <reset_error>:
      d0:	e3a00001 	mov	r0, #1
      d4:	ea000014 	b	12c <rt_error>

000000d8 <undef_error>:
      d8:	e3a0b002 	mov	fp, #2
      dc:	ea00000c 	b	114 <exc_error>

000000e0 <svc_error>:
      e0:	e3a0b003 	mov	fp, #3
      e4:	ea00000a 	b	114 <exc_error>

000000e8 <pabt_error>:
      e8:	e3a0b004 	mov	fp, #4
      ec:	ea000008 	b	114 <exc_error>

000000f0 <dabt_error>:
      f0:	e3a0b005 	mov	fp, #5
      f4:	ea000006 	b	114 <exc_error>

000000f8 <irq_error>:
      f8:	e3a0b006 	mov	fp, #6
      fc:	ea000004 	b	114 <exc_error>

00000100 <fiq_error>:
     100:	e3a0b007 	mov	fp, #7
     104:	ea000002 	b	114 <exc_error>

00000108 <vic_error>:
     108:	e3a0b008 	mov	fp, #8
     10c:	e3a0042f 	mov	r0, #788529152	; 0x2f000000
     110:	e5900030 	ldr	r0, [r0, #48]	; 0x30

00000114 <exc_error>:
     114:	e1a0a00e 	mov	sl, lr
     118:	e14f8000 	mrs	r8, SPSR
     11c:	e38890c0 	orr	r9, r8, #192	; 0xc0
     120:	e3c99020 	bic	r9, r9, #32
     124:	e12ff009 	msr	CPSR_fsxc, r9
     128:	ea000002 	b	138 <cc_error>

0000012c <rt_error>:
     12c:	e1a0b000 	mov	fp, r0
     130:	e10f8000 	mrs	r8, CPSR
     134:	e1a0a00e 	mov	sl, lr

00000138 <cc_error>:
     138:	e59fc048 	ldr	ip, [pc, #72]	; 188 <DMA_CRCT+0x8>
     13c:	e59cc000 	ldr	ip, [ip]
     140:	e3a09080 	mov	r9, #128	; 0x80
     144:	e59fe040 	ldr	lr, [pc, #64]	; 18c <DMA_CRCT+0xc>
     148:	e02ee99c 	mla	lr, ip, r9, lr
     14c:	e1a0900d 	mov	r9, sp
     150:	e88e07ff 	stm	lr, {r0, r1, r2, r3, r4, r5, r6, r7, r8, r9, sl}
     154:	e5ceb02c 	strb	fp, [lr, #44]	; 0x2c
     158:	e3a08002 	mov	r8, #2
     15c:	e5ce802e 	strb	r8, [lr, #46]	; 0x2e
     160:	e1a0000b 	mov	r0, fp
     164:	e321f0d3 	msr	CPSR_c, #211	; 0xd3
     168:	fa000e88 	blx	3b90 <rte_handler>

0000016c <cpu_shutdown>:
     16c:	e321f0d3 	msr	CPSR_c, #211	; 0xd3
     170:	e3a0042f 	mov	r0, #788529152	; 0x2f000000
     174:	e3e01000 	mvn	r1, #0
     178:	e5801014 	str	r1, [r0, #20]

0000017c <cpu_sleep>:
     17c:	ee070f90 	mcr	15, 0, r0, cr7, cr0, {4}
     180:	eafffffd 	b	17c <cpu_sleep>
     184:	00001f7e 	.word	0x00001f7e
     188:	00400530 	.word	0x00400530
     18c:	e5007000 	.word	0xe5007000

00000190 <cpu_init_mode>:
     190:	e10f3000 	mrs	r3, CPSR
     194:	e121f001 	msr	CPSR_c, r1
     198:	e1a0d000 	mov	sp, r0
     19c:	e12ff003 	msr	CPSR_fsxc, r3
     1a0:	e0400102 	sub	r0, r0, r2, lsl #2
     1a4:	e12fff1e 	bx	lr

000001a8 <cpu_irq_disable>:
     1a8:	e10f0000 	mrs	r0, CPSR
     1ac:	e3801080 	orr	r1, r0, #128	; 0x80
     1b0:	e121f001 	msr	CPSR_c, r1
     1b4:	e12fff1e 	bx	lr

000001b8 <cpu_int_enable>:
     1b8:	e10f0000 	mrs	r0, CPSR
     1bc:	e3c010c0 	bic	r1, r0, #192	; 0xc0
     1c0:	e121f001 	msr	CPSR_c, r1
     1c4:	e12fff1e 	bx	lr

000001c8 <cpu_int_disable>:
     1c8:	e10f0000 	mrs	r0, CPSR
     1cc:	e38010c0 	orr	r1, r0, #192	; 0xc0
     1d0:	e121f001 	msr	CPSR_c, r1
     1d4:	e12fff1e 	bx	lr

000001d8 <cpu_int_restore>:
     1d8:	e12ff000 	msr	CPSR_fsxc, r0
     1dc:	e12fff1e 	bx	lr

000001e0 <cpu_wfi>:
     1e0:	ee070f90 	mcr	15, 0, r0, cr7, cr0, {4}
     1e4:	e12fff1e 	bx	lr

000001e8 <sark_lock_get>:
     1e8:	e3a0c4e2 	mov	ip, #-503316480	; 0xe2000000
     1ec:	e08cc100 	add	ip, ip, r0, lsl #2
     1f0:	e10f0000 	mrs	r0, CPSR
     1f4:	e38010c0 	orr	r1, r0, #192	; 0xc0
     1f8:	e121f001 	msr	CPSR_c, r1

000001fc <lg1>:
     1fc:	e59c1100 	ldr	r1, [ip, #256]	; 0x100
     200:	e3110102 	tst	r1, #-2147483648	; 0x80000000
     204:	1afffffc 	bne	1fc <lg1>
     208:	e12fff1e 	bx	lr

0000020c <sark_lock_free>:
     20c:	e3a0c4e2 	mov	ip, #-503316480	; 0xe2000000
     210:	e08c1101 	add	r1, ip, r1, lsl #2
     214:	e5911180 	ldr	r1, [r1, #384]	; 0x180
     218:	e121f000 	msr	CPSR_c, r0
     21c:	e12fff1e 	bx	lr

00000220 <sark_str_cpy>:
     220:	e4d12001 	ldrb	r2, [r1], #1
     224:	e3520000 	cmp	r2, #0
     228:	e4c02001 	strb	r2, [r0], #1
     22c:	1afffffb 	bne	220 <sark_str_cpy>
     230:	e12fff1e 	bx	lr

00000234 <sark_word_set>:
     234:	e1a03001 	mov	r3, r1

00000238 <ws1>:
     238:	e2522010 	subs	r2, r2, #16
     23c:	28a0000a 	stmiacs	r0!, {r1, r3}
     240:	28a0000a 	stmiacs	r0!, {r1, r3}
     244:	2afffffb 	bcs	238 <ws1>
     248:	e1b02e82 	lsls	r2, r2, #29
     24c:	28a0000a 	stmiacs	r0!, {r1, r3}
     250:	48a00002 	stmiami	r0!, {r1}
     254:	e12fff1e 	bx	lr

00000258 <sark_msg_cpy>:
     258:	e2800004 	add	r0, r0, #4
     25c:	e2811004 	add	r1, r1, #4
     260:	e1d120b0 	ldrh	r2, [r1]
     264:	e2822004 	add	r2, r2, #4

00000268 <sark_word_cpy>:
     268:	e3120003 	tst	r2, #3
     26c:	13c22003 	bicne	r2, r2, #3
     270:	12822004 	addne	r2, r2, #4
     274:	e92d4010 	push	{r4, lr}
     278:	e2522020 	subs	r2, r2, #32
     27c:	3a000005 	bcc	298 <wc2>

00000280 <wc1>:
     280:	e8b15018 	ldm	r1!, {r3, r4, ip, lr}
     284:	e8a05018 	stmia	r0!, {r3, r4, ip, lr}
     288:	e8b15018 	ldm	r1!, {r3, r4, ip, lr}
     28c:	e8a05018 	stmia	r0!, {r3, r4, ip, lr}
     290:	e2522020 	subs	r2, r2, #32
     294:	2afffff9 	bcs	280 <wc1>

00000298 <wc2>:
     298:	e1b0ce02 	lsls	ip, r2, #28
     29c:	28b15018 	ldmcs	r1!, {r3, r4, ip, lr}
     2a0:	28a05018 	stmiacs	r0!, {r3, r4, ip, lr}
     2a4:	48b10018 	ldmmi	r1!, {r3, r4}
     2a8:	48a00018 	stmiami	r0!, {r3, r4}
     2ac:	e1b0cf02 	lsls	ip, r2, #30
     2b0:	24913004 	ldrcs	r3, [r1], #4
     2b4:	24803004 	strcs	r3, [r0], #4
     2b8:	e8bd8010 	pop	{r4, pc}

000002bc <sark_delay_us>:
     2bc:	4903      	ldr	r1, [pc, #12]	; (2cc <delay1+0x8>)
     2be:	8809      	ldrh	r1, [r1, #0]
     2c0:	4341      	muls	r1, r0
     2c2:	0888      	lsrs	r0, r1, #2

000002c4 <delay1>:
     2c4:	3801      	subs	r0, #1
     2c6:	d2fd      	bcs.n	2c4 <delay1>
     2c8:	4770      	bx	lr
     2ca:	0000      	.short	0x0000
     2cc:	00400560 	.word	0x00400560

000002d0 <sark_div10>:
     2d0:	e241200a 	sub	r2, r1, #10
     2d4:	e0411121 	sub	r1, r1, r1, lsr #2
     2d8:	e0811221 	add	r1, r1, r1, lsr #4
     2dc:	e0811421 	add	r1, r1, r1, lsr #8
     2e0:	e0811821 	add	r1, r1, r1, lsr #16
     2e4:	e1a011a1 	lsr	r1, r1, #3
     2e8:	e0813101 	add	r3, r1, r1, lsl #2
     2ec:	e0522083 	subs	r2, r2, r3, lsl #1
     2f0:	52811001 	addpl	r1, r1, #1
     2f4:	4282200a 	addmi	r2, r2, #10
     2f8:	e8800006 	stm	r0, {r1, r2}
     2fc:	e12fff1e 	bx	lr

00000300 <sark_int_han>:
     300:	e92d500f 	push	{r0, r1, r2, r3, ip, lr}
     304:	e24e0004 	sub	r0, lr, #4
     308:	e14fc000 	mrs	ip, SPSR
     30c:	e321f01f 	msr	CPSR_c, #31
     310:	e92d5000 	push	{ip, lr}
     314:	fa000f27 	blx	3fb8 <sark_int>
     318:	e8bd5000 	pop	{ip, lr}
     31c:	e321f092 	msr	CPSR_c, #146	; 0x92
     320:	e16ff00c 	msr	SPSR_fsxc, ip
     324:	e3a0042f 	mov	r0, #788529152	; 0x2f000000
     328:	e5800030 	str	r0, [r0, #48]	; 0x30
     32c:	e8bd500f 	pop	{r0, r1, r2, r3, ip, lr}

00000330 <null_int_han>:
     330:	e25ef004 	subs	pc, lr, #4

00000334 <schedule>:
     334:	e92d5000 	push	{ip, lr}
     338:	e10fc000 	mrs	ip, CPSR
     33c:	e3cce01f 	bic	lr, ip, #31
     340:	e38ee01f 	orr	lr, lr, #31
     344:	e121f00e 	msr	CPSR_c, lr
     348:	e92d5000 	push	{ip, lr}
     34c:	fa001302 	blx	4f5c <schedule_sysmode>
     350:	e8bd5000 	pop	{ip, lr}
     354:	e121f00c 	msr	CPSR_c, ip
     358:	e8bd5000 	pop	{ip, lr}
     35c:	e12fff1e 	bx	lr

00000360 <sark_config>:
     360:	4770      	bx	lr

00000362 <sark_bx>:
     362:	4700      	bx	r0

00000364 <__gnu_thumb1_case_uqi>:
     364:	468c      	mov	ip, r1
     366:	4671      	mov	r1, lr
     368:	3901      	subs	r1, #1
     36a:	5c09      	ldrb	r1, [r1, r0]
     36c:	0049      	lsls	r1, r1, #1
     36e:	448e      	add	lr, r1
     370:	4661      	mov	r1, ip
     372:	4770      	bx	lr

00000374 <sark_aplx>:
     374:	b5f2      	push	{r1, r4, r5, r6, r7, lr}
     376:	4905      	ldr	r1, [pc, #20]	; (38c <aplx_buffer>)
     378:	a605      	add	r6, pc, #20	; (adr r6, 390 <aplx_loader>)
     37a:	2740      	movs	r7, #64	; 0x40

0000037c <aplx_l0>:
     37c:	ce3c      	ldmia	r6!, {r2, r3, r4, r5}
     37e:	c13c      	stmia	r1!, {r2, r3, r4, r5}
     380:	3f10      	subs	r7, #16
     382:	d1fb      	bne.n	37c <aplx_l0>
     384:	1c04      	adds	r4, r0, #0
     386:	393f      	subs	r1, #63	; 0x3f
     388:	4708      	bx	r1
	...

0000038c <aplx_buffer>:
     38c:	00007fc0 	.word	0x00007fc0

00000390 <aplx_loader>:
     390:	cc0f      	ldmia	r4!, {r0, r1, r2, r3}
     392:	2801      	cmp	r0, #1
     394:	d008      	beq.n	3a8 <aplx_copy>
     396:	2802      	cmp	r0, #2
     398:	d004      	beq.n	3a4 <aplx_rcopy>
     39a:	2803      	cmp	r0, #3
     39c:	d00b      	beq.n	3b6 <aplx_fill>
     39e:	2804      	cmp	r0, #4
     3a0:	d011      	beq.n	3c6 <aplx_exec>
     3a2:	bdf2      	pop	{r1, r4, r5, r6, r7, pc}

000003a4 <aplx_rcopy>:
     3a4:	1912      	adds	r2, r2, r4
     3a6:	3a10      	subs	r2, #16

000003a8 <aplx_copy>:
     3a8:	cae1      	ldmia	r2!, {r0, r5, r6, r7}
     3aa:	c1e1      	stmia	r1!, {r0, r5, r6, r7}
     3ac:	cae1      	ldmia	r2!, {r0, r5, r6, r7}
     3ae:	c1e1      	stmia	r1!, {r0, r5, r6, r7}
     3b0:	3b20      	subs	r3, #32
     3b2:	d8f9      	bhi.n	3a8 <aplx_copy>
     3b4:	e7ec      	b.n	390 <aplx_loader>

000003b6 <aplx_fill>:
     3b6:	1c1d      	adds	r5, r3, #0
     3b8:	1c1e      	adds	r6, r3, #0
     3ba:	1c1f      	adds	r7, r3, #0

000003bc <aplx_l1>:
     3bc:	c1e8      	stmia	r1!, {r3, r5, r6, r7}
     3be:	c1e8      	stmia	r1!, {r3, r5, r6, r7}
     3c0:	3a20      	subs	r2, #32
     3c2:	d8fb      	bhi.n	3bc <aplx_l1>
     3c4:	e7e4      	b.n	390 <aplx_loader>

000003c6 <aplx_exec>:
     3c6:	9800      	ldr	r0, [sp, #0]
     3c8:	4788      	blx	r1
     3ca:	e7e1      	b.n	390 <aplx_loader>

000003cc <_ZN12_GLOBAL__N_1L18handle_sdp_messageEjj>:
     3cc:	e92d4010 	push	{r4, lr}
     3d0:	e59f1014 	ldr	r1, [pc, #20]	; 3ec <_ZN12_GLOBAL__N_1L18handle_sdp_messageEjj+0x20>
     3d4:	e3a00002 	mov	r0, #2
     3d8:	fa0010ad 	blx	4694 <io_printf>
     3dc:	e59f300c 	ldr	r3, [pc, #12]	; 3f0 <_ZN12_GLOBAL__N_1L18handle_sdp_messageEjj+0x24>
     3e0:	e3a02001 	mov	r2, #1
     3e4:	e5c32000 	strb	r2, [r3]
     3e8:	e8bd8010 	pop	{r4, pc}
     3ec:	00005514 	.word	0x00005514
     3f0:	0040000c 	.word	0x0040000c

000003f4 <_ZN12_GLOBAL__N_1L13send_n_delaysEmPtmmm>:
     3f4:	e92d47f0 	push	{r4, r5, r6, r7, r8, r9, sl, lr}
     3f8:	e1a06320 	lsr	r6, r0, #6
     3fc:	e1a0c9a0 	lsr	ip, r0, #19
     400:	e20660ff 	and	r6, r6, #255	; 0xff
     404:	e186640c 	orr	r6, r6, ip, lsl #8
     408:	e1a06806 	lsl	r6, r6, #16
     40c:	e24dd008 	sub	sp, sp, #8
     410:	e200703f 	and	r7, r0, #63	; 0x3f
     414:	e1a06826 	lsr	r6, r6, #16
     418:	e59f5174 	ldr	r5, [pc, #372]	; 594 <MC_TABLE_SIZE+0x194>
     41c:	e1a08002 	mov	r8, r2
     420:	e58d2000 	str	r2, [sp]
     424:	e3a00002 	mov	r0, #2
     428:	e1a02006 	mov	r2, r6
     42c:	e1a0a001 	mov	sl, r1
     430:	e1a04003 	mov	r4, r3
     434:	e59f115c 	ldr	r1, [pc, #348]	; 598 <MC_TABLE_SIZE+0x198>
     438:	e1a03007 	mov	r3, r7
     43c:	e59d9028 	ldr	r9, [sp, #40]	; 0x28
     440:	fa001093 	blx	4694 <io_printf>
     444:	e3a0206f 	mov	r2, #111	; 0x6f
     448:	e3a03007 	mov	r3, #7
     44c:	e3870020 	orr	r0, r7, #32
     450:	e5c5200d 	strb	r2, [r5, #13]
     454:	e5c5300c 	strb	r3, [r5, #12]
     458:	e1c561b0 	strh	r6, [r5, #16]
     45c:	e5c5000e 	strb	r0, [r5, #14]
     460:	fa0012b7 	blx	4f44 <spin1_get_chip_id>
     464:	e1c501b2 	strh	r0, [r5, #18]
     468:	fa0012b2 	blx	4f38 <spin1_get_core_id>
     46c:	e3580000 	cmp	r8, #0
     470:	e3800020 	orr	r0, r0, #32
     474:	e5c5000f 	strb	r0, [r5, #15]
     478:	1a000036 	bne	558 <MC_TABLE_SIZE+0x158>
     47c:	e3a0300a 	mov	r3, #10
     480:	e1c581b4 	strh	r8, [r5, #20]
     484:	e1c530b8 	strh	r3, [r5, #8]
     488:	fa0012aa 	blx	4f38 <spin1_get_core_id>
     48c:	e3a08001 	mov	r8, #1
     490:	e59f9104 	ldr	r9, [pc, #260]	; 59c <MC_TABLE_SIZE+0x19c>
     494:	e3a0a000 	mov	sl, #0
     498:	e59f7100 	ldr	r7, [pc, #256]	; 5a0 <SPARE_SIZE>
     49c:	e1a0600a 	mov	r6, sl
     4a0:	e1a00034 	lsr	r0, r4, r0
     4a4:	e0800008 	add	r0, r0, r8
     4a8:	e2000003 	and	r0, r0, #3
     4ac:	fb00129a 	blx	4f1e <spin1_delay_us>
     4b0:	e1a01008 	mov	r1, r8
     4b4:	e1a00009 	mov	r0, r9
     4b8:	e5c5a000 	strb	sl, [r5]
     4bc:	fa001118 	blx	4924 <spin1_send_sdp_msg>
     4c0:	e59f10dc 	ldr	r1, [pc, #220]	; 5a4 <SPARE_SIZE+0x4>
     4c4:	e3a00002 	mov	r0, #2
     4c8:	fa001071 	blx	4694 <io_printf>
     4cc:	e3560014 	cmp	r6, #20
     4d0:	e5d53000 	ldrb	r3, [r5]
     4d4:	0a00001b 	beq	548 <MC_TABLE_SIZE+0x148>
     4d8:	e3530000 	cmp	r3, #0
     4dc:	1a000013 	bne	530 <MC_TABLE_SIZE+0x130>
     4e0:	fa001294 	blx	4f38 <spin1_get_core_id>
     4e4:	e1a0a000 	mov	sl, r0
     4e8:	fa001295 	blx	4f44 <spin1_get_chip_id>
     4ec:	e020609a 	mla	r0, sl, r0, r6
     4f0:	e1a03120 	lsr	r3, r0, #2
     4f4:	e0832397 	umull	r2, r3, r7, r3
     4f8:	e0633183 	rsb	r3, r3, r3, lsl #3
     4fc:	e0400103 	sub	r0, r0, r3, lsl #2
     500:	e2803002 	add	r3, r0, #2
     504:	e1a03334 	lsr	r3, r4, r3
     508:	e1a00034 	lsr	r0, r4, r0
     50c:	e2033003 	and	r3, r3, #3
     510:	e2000003 	and	r0, r0, #3
     514:	e0830080 	add	r0, r3, r0, lsl #1
     518:	e2800da1 	add	r0, r0, #10304	; 0x2840
     51c:	e2800007 	add	r0, r0, #7
     520:	fb00127d 	blx	4f1e <spin1_delay_us>
     524:	e5d53000 	ldrb	r3, [r5]
     528:	e3530000 	cmp	r3, #0
     52c:	0a000013 	beq	580 <MC_TABLE_SIZE+0x180>
     530:	e1a02006 	mov	r2, r6
     534:	e3a00002 	mov	r0, #2
     538:	e59f1068 	ldr	r1, [pc, #104]	; 5a8 <SPARE_SIZE+0x8>
     53c:	e28dd008 	add	sp, sp, #8
     540:	e8bd47f0 	pop	{r4, r5, r6, r7, r8, r9, sl, lr}
     544:	ea0013ef 	b	5508 <__io_printf_from_arm>
     548:	e3530000 	cmp	r3, #0
     54c:	03a03001 	moveq	r3, #1
     550:	05c53000 	strbeq	r3, [r5]
     554:	eafffff5 	b	530 <MC_TABLE_SIZE+0x130>
     558:	e1a02088 	lsl	r2, r8, #1
     55c:	e1c581b4 	strh	r8, [r5, #20]
     560:	e2888006 	add	r8, r8, #6
     564:	e1a0100a 	mov	r1, sl
     568:	e2850018 	add	r0, r5, #24
     56c:	e1a08088 	lsl	r8, r8, #1
     570:	e1c591b6 	strh	r9, [r5, #22]
     574:	fb00126a 	blx	4f26 <spin1_memcpy>
     578:	e1c580b8 	strh	r8, [r5, #8]
     57c:	eaffffc1 	b	488 <MC_TABLE_SIZE+0x88>
     580:	e1a01008 	mov	r1, r8
     584:	e1a00009 	mov	r0, r9
     588:	e2866001 	add	r6, r6, #1
     58c:	fa0010e4 	blx	4924 <spin1_send_sdp_msg>
     590:	eaffffcd 	b	4cc <MC_TABLE_SIZE+0xcc>
     594:	0040000c 	.word	0x0040000c
     598:	00005530 	.word	0x00005530
     59c:	00400010 	.word	0x00400010
     5a0:	24924925 	.word	0x24924925
     5a4:	00005568 	.word	0x00005568
     5a8:	00005590 	.word	0x00005590

000005ac <_ZN12_GLOBAL__N_19app_startEjj>:
     5ac:	e92d4ff0 	push	{r4, r5, r6, r7, r8, r9, sl, fp, lr}
     5b0:	e28db020 	add	fp, sp, #32
     5b4:	e24ddf87 	sub	sp, sp, #540	; 0x21c
     5b8:	e3a00007 	mov	r0, #7
     5bc:	e59f8f28 	ldr	r8, [pc, #3880]	; 14ec <SV_SIZE+0x4ec>
     5c0:	fa000d77 	blx	3ba4 <sark_cpu_state>
     5c4:	e59f1f24 	ldr	r1, [pc, #3876]	; 14f0 <SV_SIZE+0x4f0>
     5c8:	e3a00002 	mov	r0, #2
     5cc:	fa001030 	blx	4694 <io_printf>
     5d0:	e598313c 	ldr	r3, [r8, #316]	; 0x13c
     5d4:	e3530001 	cmp	r3, #1
     5d8:	9a000534 	bls	1ab0 <SV_SIZE+0xab0>
     5dc:	e3a03002 	mov	r3, #2
     5e0:	e1a00003 	mov	r0, r3
     5e4:	e59f2fe0 	ldr	r2, [pc, #4064]	; 15cc <SV_SIZE+0x5cc>
     5e8:	e59f1fc4 	ldr	r1, [pc, #4036]	; 15b4 <SV_SIZE+0x5b4>
     5ec:	fa001028 	blx	4694 <io_printf>
     5f0:	e598313c 	ldr	r3, [r8, #316]	; 0x13c
     5f4:	e3530001 	cmp	r3, #1
     5f8:	9a00051c 	bls	1a70 <SV_SIZE+0xa70>
     5fc:	e3a03002 	mov	r3, #2
     600:	e1a00003 	mov	r0, r3
     604:	e59f2fb8 	ldr	r2, [pc, #4024]	; 15c4 <SV_SIZE+0x5c4>
     608:	e59f1fa4 	ldr	r1, [pc, #4004]	; 15b4 <SV_SIZE+0x5b4>
     60c:	fa001020 	blx	4694 <io_printf>
     610:	e59f1edc 	ldr	r1, [pc, #3804]	; 14f4 <SV_SIZE+0x4f4>
     614:	e3a00002 	mov	r0, #2
     618:	fa00101d 	blx	4694 <io_printf>
     61c:	e598316c 	ldr	r3, [r8, #364]	; 0x16c
     620:	e3530004 	cmp	r3, #4
     624:	8a0004d8 	bhi	198c <SV_SIZE+0x98c>
     628:	e59fcf80 	ldr	ip, [pc, #3968]	; 15b0 <SV_SIZE+0x5b0>
     62c:	e0885103 	add	r5, r8, r3, lsl #2
     630:	e1a0200c 	mov	r2, ip
     634:	e2833001 	add	r3, r3, #1
     638:	e59f4eb8 	ldr	r4, [pc, #3768]	; 14f8 <SV_SIZE+0x4f8>
     63c:	e59f1f90 	ldr	r1, [pc, #3984]	; 15d4 <SV_SIZE+0x5d4>
     640:	e3a00002 	mov	r0, #2
     644:	e588316c 	str	r3, [r8, #364]	; 0x16c
     648:	e585c140 	str	ip, [r5, #320]	; 0x140
     64c:	e5854154 	str	r4, [r5, #340]	; 0x154
     650:	fa00100f 	blx	4694 <io_printf>
     654:	e5983168 	ldr	r3, [r8, #360]	; 0x168
     658:	e3530007 	cmp	r3, #7
     65c:	93a03008 	movls	r3, #8
     660:	95883168 	strls	r3, [r8, #360]	; 0x168
     664:	e598316c 	ldr	r3, [r8, #364]	; 0x16c
     668:	e3530004 	cmp	r3, #4
     66c:	8a0004c0 	bhi	1974 <SV_SIZE+0x974>
     670:	e59fcf34 	ldr	ip, [pc, #3892]	; 15ac <SV_SIZE+0x5ac>
     674:	e0885103 	add	r5, r8, r3, lsl #2
     678:	e1a0200c 	mov	r2, ip
     67c:	e2833001 	add	r3, r3, #1
     680:	e59f4e74 	ldr	r4, [pc, #3700]	; 14fc <SV_SIZE+0x4fc>
     684:	e59f1f48 	ldr	r1, [pc, #3912]	; 15d4 <SV_SIZE+0x5d4>
     688:	e3a00002 	mov	r0, #2
     68c:	e588316c 	str	r3, [r8, #364]	; 0x16c
     690:	e585c140 	str	ip, [r5, #320]	; 0x140
     694:	e5854154 	str	r4, [r5, #340]	; 0x154
     698:	fa000ffd 	blx	4694 <io_printf>
     69c:	e5983168 	ldr	r3, [r8, #360]	; 0x168
     6a0:	e3530003 	cmp	r3, #3
     6a4:	93a03004 	movls	r3, #4
     6a8:	95883168 	strls	r3, [r8, #360]	; 0x168
     6ac:	e598316c 	ldr	r3, [r8, #364]	; 0x16c
     6b0:	e3530004 	cmp	r3, #4
     6b4:	8a0004a8 	bhi	195c <SV_SIZE+0x95c>
     6b8:	e59fcee8 	ldr	ip, [pc, #3816]	; 15a8 <SV_SIZE+0x5a8>
     6bc:	e0885103 	add	r5, r8, r3, lsl #2
     6c0:	e1a0200c 	mov	r2, ip
     6c4:	e2833001 	add	r3, r3, #1
     6c8:	e59f4e30 	ldr	r4, [pc, #3632]	; 1500 <SV_SIZE+0x500>
     6cc:	e59f1f00 	ldr	r1, [pc, #3840]	; 15d4 <SV_SIZE+0x5d4>
     6d0:	e3a00002 	mov	r0, #2
     6d4:	e588316c 	str	r3, [r8, #364]	; 0x16c
     6d8:	e585c140 	str	ip, [r5, #320]	; 0x140
     6dc:	e5854154 	str	r4, [r5, #340]	; 0x154
     6e0:	fa000feb 	blx	4694 <io_printf>
     6e4:	e5983168 	ldr	r3, [r8, #360]	; 0x168
     6e8:	e353000b 	cmp	r3, #11
     6ec:	93a0300c 	movls	r3, #12
     6f0:	95883168 	strls	r3, [r8, #360]	; 0x168
     6f4:	e598316c 	ldr	r3, [r8, #364]	; 0x16c
     6f8:	e3530004 	cmp	r3, #4
     6fc:	8a000490 	bhi	1944 <SV_SIZE+0x944>
     700:	e59fce9c 	ldr	ip, [pc, #3740]	; 15a4 <SV_SIZE+0x5a4>
     704:	e0885103 	add	r5, r8, r3, lsl #2
     708:	e1a0200c 	mov	r2, ip
     70c:	e2833001 	add	r3, r3, #1
     710:	e59f4dec 	ldr	r4, [pc, #3564]	; 1504 <SV_SIZE+0x504>
     714:	e59f1eb8 	ldr	r1, [pc, #3768]	; 15d4 <SV_SIZE+0x5d4>
     718:	e3a00002 	mov	r0, #2
     71c:	e588316c 	str	r3, [r8, #364]	; 0x16c
     720:	e585c140 	str	ip, [r5, #320]	; 0x140
     724:	e5854154 	str	r4, [r5, #340]	; 0x154
     728:	fa000fd9 	blx	4694 <io_printf>
     72c:	e5983168 	ldr	r3, [r8, #360]	; 0x168
     730:	e3530023 	cmp	r3, #35	; 0x23
     734:	93a03024 	movls	r3, #36	; 0x24
     738:	95883168 	strls	r3, [r8, #360]	; 0x168
     73c:	e598316c 	ldr	r3, [r8, #364]	; 0x16c
     740:	e3530004 	cmp	r3, #4
     744:	8a000478 	bhi	192c <SV_SIZE+0x92c>
     748:	e59fce50 	ldr	ip, [pc, #3664]	; 15a0 <SV_SIZE+0x5a0>
     74c:	e0885103 	add	r5, r8, r3, lsl #2
     750:	e1a0200c 	mov	r2, ip
     754:	e2833001 	add	r3, r3, #1
     758:	e59f4da8 	ldr	r4, [pc, #3496]	; 1508 <SV_SIZE+0x508>
     75c:	e59f1e70 	ldr	r1, [pc, #3696]	; 15d4 <SV_SIZE+0x5d4>
     760:	e3a00002 	mov	r0, #2
     764:	e588316c 	str	r3, [r8, #364]	; 0x16c
     768:	e585c140 	str	ip, [r5, #320]	; 0x140
     76c:	e5854154 	str	r4, [r5, #340]	; 0x154
     770:	fa000fc7 	blx	4694 <io_printf>
     774:	e5983168 	ldr	r3, [r8, #360]	; 0x168
     778:	e353000b 	cmp	r3, #11
     77c:	93a0300c 	movls	r3, #12
     780:	95883168 	strls	r3, [r8, #360]	; 0x168
     784:	e59f1d80 	ldr	r1, [pc, #3456]	; 150c <SV_SIZE+0x50c>
     788:	e3a00002 	mov	r0, #2
     78c:	fa000fc0 	blx	4694 <io_printf>
     790:	e59831c4 	ldr	r3, [r8, #452]	; 0x1c4
     794:	e3530009 	cmp	r3, #9
     798:	8a00045d 	bhi	1914 <SV_SIZE+0x914>
     79c:	e59fcdf8 	ldr	ip, [pc, #3576]	; 159c <SV_SIZE+0x59c>
     7a0:	e0885103 	add	r5, r8, r3, lsl #2
     7a4:	e1a0200c 	mov	r2, ip
     7a8:	e2833001 	add	r3, r3, #1
     7ac:	e59f4d5c 	ldr	r4, [pc, #3420]	; 1510 <SV_SIZE+0x510>
     7b0:	e59f1e1c 	ldr	r1, [pc, #3612]	; 15d4 <SV_SIZE+0x5d4>
     7b4:	e3a00002 	mov	r0, #2
     7b8:	e58831c4 	str	r3, [r8, #452]	; 0x1c4
     7bc:	e585c170 	str	ip, [r5, #368]	; 0x170
     7c0:	e5854198 	str	r4, [r5, #408]	; 0x198
     7c4:	fa000fb2 	blx	4694 <io_printf>
     7c8:	e59831c0 	ldr	r3, [r8, #448]	; 0x1c0
     7cc:	e3530007 	cmp	r3, #7
     7d0:	93a03008 	movls	r3, #8
     7d4:	958831c0 	strls	r3, [r8, #448]	; 0x1c0
     7d8:	e59831c4 	ldr	r3, [r8, #452]	; 0x1c4
     7dc:	e3530009 	cmp	r3, #9
     7e0:	8a00021d 	bhi	105c <SV_SIZE+0x5c>
     7e4:	e59fcd28 	ldr	ip, [pc, #3368]	; 1514 <SV_SIZE+0x514>
     7e8:	e0885103 	add	r5, r8, r3, lsl #2
     7ec:	e1a0200c 	mov	r2, ip
     7f0:	e2833001 	add	r3, r3, #1
     7f4:	e59f4d1c 	ldr	r4, [pc, #3356]	; 1518 <SV_SIZE+0x518>
     7f8:	e59f1dd4 	ldr	r1, [pc, #3540]	; 15d4 <SV_SIZE+0x5d4>
     7fc:	e3a00002 	mov	r0, #2
     800:	e58831c4 	str	r3, [r8, #452]	; 0x1c4
     804:	e585c170 	str	ip, [r5, #368]	; 0x170
     808:	e5854198 	str	r4, [r5, #408]	; 0x198
     80c:	fa000fa0 	blx	4694 <io_printf>
     810:	e59831c0 	ldr	r3, [r8, #448]	; 0x1c0
     814:	e3530027 	cmp	r3, #39	; 0x27
     818:	93a03028 	movls	r3, #40	; 0x28
     81c:	958831c0 	strls	r3, [r8, #448]	; 0x1c0
     820:	e59831c4 	ldr	r3, [r8, #452]	; 0x1c4
     824:	e3530009 	cmp	r3, #9
     828:	8a000205 	bhi	1044 <SV_SIZE+0x44>
     82c:	e59fcce8 	ldr	ip, [pc, #3304]	; 151c <SV_SIZE+0x51c>
     830:	e0885103 	add	r5, r8, r3, lsl #2
     834:	e1a0200c 	mov	r2, ip
     838:	e2833001 	add	r3, r3, #1
     83c:	e59f4cdc 	ldr	r4, [pc, #3292]	; 1520 <SV_SIZE+0x520>
     840:	e59f1d8c 	ldr	r1, [pc, #3468]	; 15d4 <SV_SIZE+0x5d4>
     844:	e3a00002 	mov	r0, #2
     848:	e58831c4 	str	r3, [r8, #452]	; 0x1c4
     84c:	e585c170 	str	ip, [r5, #368]	; 0x170
     850:	e5854198 	str	r4, [r5, #408]	; 0x198
     854:	fa000f8e 	blx	4694 <io_printf>
     858:	e59831c0 	ldr	r3, [r8, #448]	; 0x1c0
     85c:	e353000b 	cmp	r3, #11
     860:	93a0300c 	movls	r3, #12
     864:	958831c0 	strls	r3, [r8, #448]	; 0x1c0
     868:	e59831c4 	ldr	r3, [r8, #452]	; 0x1c4
     86c:	e3530009 	cmp	r3, #9
     870:	8a0001ed 	bhi	102c <SV_SIZE+0x2c>
     874:	e59fcca8 	ldr	ip, [pc, #3240]	; 1524 <SV_SIZE+0x524>
     878:	e0885103 	add	r5, r8, r3, lsl #2
     87c:	e1a0200c 	mov	r2, ip
     880:	e2833001 	add	r3, r3, #1
     884:	e59f4c9c 	ldr	r4, [pc, #3228]	; 1528 <SV_SIZE+0x528>
     888:	e59f1d44 	ldr	r1, [pc, #3396]	; 15d4 <SV_SIZE+0x5d4>
     88c:	e3a00002 	mov	r0, #2
     890:	e58831c4 	str	r3, [r8, #452]	; 0x1c4
     894:	e585c170 	str	ip, [r5, #368]	; 0x170
     898:	e5854198 	str	r4, [r5, #408]	; 0x198
     89c:	fa000f7c 	blx	4694 <io_printf>
     8a0:	e59831c0 	ldr	r3, [r8, #448]	; 0x1c0
     8a4:	e353000b 	cmp	r3, #11
     8a8:	93a0300c 	movls	r3, #12
     8ac:	958831c0 	strls	r3, [r8, #448]	; 0x1c0
     8b0:	e59831c4 	ldr	r3, [r8, #452]	; 0x1c4
     8b4:	e3530009 	cmp	r3, #9
     8b8:	8a0001d5 	bhi	1014 <SV_SIZE+0x14>
     8bc:	e59fcc68 	ldr	ip, [pc, #3176]	; 152c <SV_SIZE+0x52c>
     8c0:	e0885103 	add	r5, r8, r3, lsl #2
     8c4:	e1a0200c 	mov	r2, ip
     8c8:	e2833001 	add	r3, r3, #1
     8cc:	e59f4c5c 	ldr	r4, [pc, #3164]	; 1530 <SV_SIZE+0x530>
     8d0:	e59f1cfc 	ldr	r1, [pc, #3324]	; 15d4 <SV_SIZE+0x5d4>
     8d4:	e3a00002 	mov	r0, #2
     8d8:	e58831c4 	str	r3, [r8, #452]	; 0x1c4
     8dc:	e585c170 	str	ip, [r5, #368]	; 0x170
     8e0:	e5854198 	str	r4, [r5, #408]	; 0x198
     8e4:	fa000f6a 	blx	4694 <io_printf>
     8e8:	e59831c0 	ldr	r3, [r8, #448]	; 0x1c0
     8ec:	e3530007 	cmp	r3, #7
     8f0:	93a03008 	movls	r3, #8
     8f4:	958831c0 	strls	r3, [r8, #448]	; 0x1c0
     8f8:	e5982138 	ldr	r2, [r8, #312]	; 0x138
     8fc:	e3520000 	cmp	r2, #0
     900:	01a00002 	moveq	r0, r2
     904:	0a000004 	beq	91c <ZI_LENGTH+0x70>
     908:	e3a00002 	mov	r0, #2
     90c:	e59f1c20 	ldr	r1, [pc, #3104]	; 1534 <SV_SIZE+0x534>
     910:	fa000f5f 	blx	4694 <io_printf>
     914:	e5980138 	ldr	r0, [r8, #312]	; 0x138
     918:	fa00118c 	blx	4f50 <spin1_malloc>
     91c:	e5982168 	ldr	r2, [r8, #360]	; 0x168
     920:	e58801c8 	str	r0, [r8, #456]	; 0x1c8
     924:	e3520000 	cmp	r2, #0
     928:	01a00002 	moveq	r0, r2
     92c:	0a000004 	beq	944 <ZI_LENGTH+0x98>
     930:	e3a00002 	mov	r0, #2
     934:	e59f1bf8 	ldr	r1, [pc, #3064]	; 1534 <SV_SIZE+0x534>
     938:	fa000f55 	blx	4694 <io_printf>
     93c:	e5980168 	ldr	r0, [r8, #360]	; 0x168
     940:	fa001182 	blx	4f50 <spin1_malloc>
     944:	e59821c0 	ldr	r2, [r8, #448]	; 0x1c0
     948:	e58801cc 	str	r0, [r8, #460]	; 0x1cc
     94c:	e3520000 	cmp	r2, #0
     950:	058821d0 	streq	r2, [r8, #464]	; 0x1d0
     954:	0a00000e 	beq	994 <ZI_LENGTH+0xe8>
     958:	e59f1bd4 	ldr	r1, [pc, #3028]	; 1534 <SV_SIZE+0x534>
     95c:	e3a00002 	mov	r0, #2
     960:	fa000f4b 	blx	4694 <io_printf>
     964:	e59801c0 	ldr	r0, [r8, #448]	; 0x1c0
     968:	fa001178 	blx	4f50 <spin1_malloc>
     96c:	e59821c0 	ldr	r2, [r8, #448]	; 0x1c0
     970:	e3520000 	cmp	r2, #0
     974:	e58801d0 	str	r0, [r8, #464]	; 0x1d0
     978:	0a000005 	beq	994 <ZI_LENGTH+0xe8>
     97c:	e59f1bb0 	ldr	r1, [pc, #2992]	; 1534 <SV_SIZE+0x534>
     980:	e3a00002 	mov	r0, #2
     984:	fa000f42 	blx	4694 <io_printf>
     988:	e59801c0 	ldr	r0, [r8, #448]	; 0x1c0
     98c:	fa00116f 	blx	4f50 <spin1_malloc>
     990:	e1a02000 	mov	r2, r0
     994:	e59f3b9c 	ldr	r3, [pc, #2972]	; 1538 <SV_SIZE+0x538>
     998:	e3a01000 	mov	r1, #0
     99c:	e5930018 	ldr	r0, [r3, #24]
     9a0:	e58821d4 	str	r2, [r8, #468]	; 0x1d4
     9a4:	fa000ea3 	blx	4438 <sark_heap_max>
     9a8:	e59f1b8c 	ldr	r1, [pc, #2956]	; 153c <SV_SIZE+0x53c>
     9ac:	e1a02000 	mov	r2, r0
     9b0:	e3a00002 	mov	r0, #2
     9b4:	fa000f36 	blx	4694 <io_printf>
     9b8:	e59f1b80 	ldr	r1, [pc, #2944]	; 1540 <SV_SIZE+0x540>
     9bc:	e3a00002 	mov	r0, #2
     9c0:	fa000f33 	blx	4694 <io_printf>
     9c4:	fa00115e 	blx	4f44 <spin1_get_chip_id>
     9c8:	e1a04000 	mov	r4, r0
     9cc:	fa001159 	blx	4f38 <spin1_get_core_id>
     9d0:	e1a02004 	mov	r2, r4
     9d4:	e59f1b68 	ldr	r1, [pc, #2920]	; 1544 <SV_SIZE+0x544>
     9d8:	e1a03000 	mov	r3, r0
     9dc:	e3a00002 	mov	r0, #2
     9e0:	fa000f2b 	blx	4694 <io_printf>
     9e4:	fa001153 	blx	4f38 <spin1_get_core_id>
     9e8:	e59f1b58 	ldr	r1, [pc, #2904]	; 1548 <SV_SIZE+0x548>
     9ec:	e1a03380 	lsl	r3, r0, #7
     9f0:	e28334e5 	add	r3, r3, #-452984832	; 0xe5000000
     9f4:	e2833a07 	add	r3, r3, #28672	; 0x7000
     9f8:	e5935070 	ldr	r5, [r3, #112]	; 0x70
     9fc:	e3a00002 	mov	r0, #2
     a00:	e1a02005 	mov	r2, r5
     a04:	fa000f22 	blx	4694 <io_printf>
     a08:	e595402c 	ldr	r4, [r5, #44]	; 0x2c
     a0c:	e5953018 	ldr	r3, [r5, #24]
     a10:	e59f1b34 	ldr	r1, [pc, #2868]	; 154c <SV_SIZE+0x54c>
     a14:	e1a02004 	mov	r2, r4
     a18:	e3a00002 	mov	r0, #2
     a1c:	e50b318c 	str	r3, [fp, #-396]	; 0xfffffe74
     a20:	fa000f1b 	blx	4694 <io_printf>
     a24:	fa001143 	blx	4f38 <spin1_get_core_id>
     a28:	e59f1b20 	ldr	r1, [pc, #2848]	; 1550 <SV_SIZE+0x550>
     a2c:	e28050b4 	add	r5, r0, #180	; 0xb4
     a30:	e1a02005 	mov	r2, r5
     a34:	e3a00002 	mov	r0, #2
     a38:	fa000f15 	blx	4694 <io_printf>
     a3c:	e59f3af4 	ldr	r3, [pc, #2804]	; 1538 <SV_SIZE+0x538>
     a40:	e3a01001 	mov	r1, #1
     a44:	e5930018 	ldr	r0, [r3, #24]
     a48:	fa000e7a 	blx	4438 <sark_heap_max>
     a4c:	e59f1ae8 	ldr	r1, [pc, #2792]	; 153c <SV_SIZE+0x53c>
     a50:	e1a02000 	mov	r2, r0
     a54:	e3a00002 	mov	r0, #2
     a58:	fa000f0d 	blx	4694 <io_printf>
     a5c:	e3a02b32 	mov	r2, #51200	; 0xc800
     a60:	e59f1aec 	ldr	r1, [pc, #2796]	; 1554 <SV_SIZE+0x554>
     a64:	e3a00002 	mov	r0, #2
     a68:	fa000f09 	blx	4694 <io_printf>
     a6c:	e59f3ac4 	ldr	r3, [pc, #2756]	; 1538 <SV_SIZE+0x538>
     a70:	e1a02005 	mov	r2, r5
     a74:	e5930018 	ldr	r0, [r3, #24]
     a78:	e3a01b32 	mov	r1, #51200	; 0xc800
     a7c:	e3a03001 	mov	r3, #1
     a80:	fa000e0a 	blx	42b0 <sark_xalloc>
     a84:	e3500000 	cmp	r0, #0
     a88:	e58801d8 	str	r0, [r8, #472]	; 0x1d8
     a8c:	0a0003de 	beq	1a0c <SV_SIZE+0xa0c>
     a90:	fa001128 	blx	4f38 <spin1_get_core_id>
     a94:	e1a05000 	mov	r5, r0
     a98:	fa000c3f 	blx	3b9c <sark_app_id>
     a9c:	e1a01000 	mov	r1, r0
     aa0:	e285008c 	add	r0, r5, #140	; 0x8c
     aa4:	fa000e7a 	blx	4494 <sark_tag_ptr>
     aa8:	e5943000 	ldr	r3, [r4]
     aac:	e59f2aa4 	ldr	r2, [pc, #2724]	; 1558 <SV_SIZE+0x558>
     ab0:	e283301f 	add	r3, r3, #31
     ab4:	e1a032a3 	lsr	r3, r3, #5
     ab8:	e5901000 	ldr	r1, [r0]
     abc:	e50b01e0 	str	r0, [fp, #-480]	; 0xfffffe20
     ac0:	e1a00103 	lsl	r0, r3, #2
     ac4:	e280c004 	add	ip, r0, #4
     ac8:	e1510002 	cmp	r1, r2
     acc:	e084100c 	add	r1, r4, ip
     ad0:	0a0003d9 	beq	1a3c <SV_SIZE+0xa3c>
     ad4:	e5912008 	ldr	r2, [r1, #8]
     ad8:	e281e010 	add	lr, r1, #16
     adc:	e3530000 	cmp	r3, #0
     ae0:	e08e3102 	add	r3, lr, r2, lsl #2
     ae4:	e2833004 	add	r3, r3, #4
     ae8:	e50b31d4 	str	r3, [fp, #-468]	; 0xfffffe2c
     aec:	e5913004 	ldr	r3, [r1, #4]
     af0:	e50b31bc 	str	r3, [fp, #-444]	; 0xfffffe44
     af4:	e591300c 	ldr	r3, [r1, #12]
     af8:	e794200c 	ldr	r2, [r4, ip]
     afc:	e50b31c4 	str	r3, [fp, #-452]	; 0xfffffe3c
     b00:	10843000 	addne	r3, r4, r0
     b04:	e50be1c0 	str	lr, [fp, #-448]	; 0xfffffe40
     b08:	e50b21b8 	str	r2, [fp, #-440]	; 0xfffffe48
     b0c:	150b31dc 	strne	r3, [fp, #-476]	; 0xfffffe24
     b10:	150b417c 	strne	r4, [fp, #-380]	; 0xfffffe84
     b14:	0a000126 	beq	fb4 <RTR_TST2+0xb0>
     b18:	e3a03000 	mov	r3, #0
     b1c:	e50b3154 	str	r3, [fp, #-340]	; 0xfffffeac
     b20:	ea000004 	b	b38 <ZI_LENGTH+0x28c>
     b24:	e51b3154 	ldr	r3, [fp, #-340]	; 0xfffffeac
     b28:	e2833001 	add	r3, r3, #1
     b2c:	e3530020 	cmp	r3, #32
     b30:	e50b3154 	str	r3, [fp, #-340]	; 0xfffffeac
     b34:	0a000118 	beq	f9c <RTR_TST2+0x98>
     b38:	e51b317c 	ldr	r3, [fp, #-380]	; 0xfffffe84
     b3c:	e51b2154 	ldr	r2, [fp, #-340]	; 0xfffffeac
     b40:	e5933004 	ldr	r3, [r3, #4]
     b44:	e3a04001 	mov	r4, #1
     b48:	e0133214 	ands	r3, r3, r4, lsl r2
     b4c:	0afffff4 	beq	b24 <ZI_LENGTH+0x278>
     b50:	e59f1a04 	ldr	r1, [pc, #2564]	; 155c <SV_SIZE+0x55c>
     b54:	e3a00002 	mov	r0, #2
     b58:	fa000ecd 	blx	4694 <io_printf>
     b5c:	e3a00002 	mov	r0, #2
     b60:	e59f19f8 	ldr	r1, [pc, #2552]	; 1560 <SV_SIZE+0x560>
     b64:	fa000eca 	blx	4694 <io_printf>
     b68:	e51b11d4 	ldr	r1, [fp, #-468]	; 0xfffffe2c
     b6c:	e59f29f0 	ldr	r2, [pc, #2544]	; 1564 <SV_SIZE+0x564>
     b70:	e591500c 	ldr	r5, [r1, #12]
     b74:	e5913040 	ldr	r3, [r1, #64]	; 0x40
     b78:	e1a09125 	lsr	r9, r5, #2
     b7c:	e0820299 	umull	r0, r2, r9, r2
     b80:	e59f09e0 	ldr	r0, [pc, #2528]	; 1568 <SV_SIZE+0x568>
     b84:	e1a09d22 	lsr	r9, r2, #26
     b88:	e0000099 	mul	r0, r9, r0
     b8c:	e1a07103 	lsl	r7, r3, #2
     b90:	e1a09000 	mov	r9, r0
     b94:	e2810044 	add	r0, r1, #68	; 0x44
     b98:	e50b0150 	str	r0, [fp, #-336]	; 0xfffffeb0
     b9c:	e0800007 	add	r0, r0, r7
     ba0:	e50b0134 	str	r0, [fp, #-308]	; 0xfffffecc
     ba4:	e0800007 	add	r0, r0, r7
     ba8:	e0802007 	add	r2, r0, r7
     bac:	e5916000 	ldr	r6, [r1]
     bb0:	e50b3180 	str	r3, [fp, #-384]	; 0xfffffe80
     bb4:	e0459009 	sub	r9, r5, r9
     bb8:	e5913004 	ldr	r3, [r1, #4]
     bbc:	e50b5100 	str	r5, [fp, #-256]	; 0xffffff00
     bc0:	e5925004 	ldr	r5, [r2, #4]
     bc4:	e592a00c 	ldr	sl, [r2, #12]
     bc8:	e282c010 	add	ip, r2, #16
     bcc:	e50b6118 	str	r6, [fp, #-280]	; 0xfffffee8
     bd0:	e50b51b0 	str	r5, [fp, #-432]	; 0xfffffe50
     bd4:	e59f6990 	ldr	r6, [pc, #2448]	; 156c <SV_SIZE+0x56c>
     bd8:	e5925008 	ldr	r5, [r2, #8]
     bdc:	e51b2180 	ldr	r2, [fp, #-384]	; 0xfffffe80
     be0:	e3530000 	cmp	r3, #0
     be4:	e7902102 	ldr	r2, [r0, r2, lsl #2]
     be8:	e50b3108 	str	r3, [fp, #-264]	; 0xfffffef8
     bec:	e50b0138 	str	r0, [fp, #-312]	; 0xfffffec8
     bf0:	01a03006 	moveq	r3, r6
     bf4:	e51b0118 	ldr	r0, [fp, #-280]	; 0xfffffee8
     bf8:	e1a06001 	mov	r6, r1
     bfc:	e50b010c 	str	r0, [fp, #-268]	; 0xfffffef4
     c00:	e5911008 	ldr	r1, [r1, #8]
     c04:	e50b00fc 	str	r0, [fp, #-252]	; 0xffffff04
     c08:	e1a00006 	mov	r0, r6
     c0c:	e50bc110 	str	ip, [fp, #-272]	; 0xfffffef0
     c10:	e5966010 	ldr	r6, [r6, #16]
     c14:	e590c014 	ldr	ip, [r0, #20]
     c18:	e50b30f8 	str	r3, [fp, #-248]	; 0xffffff08
     c1c:	e5903018 	ldr	r3, [r0, #24]
     c20:	e598e13c 	ldr	lr, [r8, #316]	; 0x13c
     c24:	e50b1104 	str	r1, [fp, #-260]	; 0xfffffefc
     c28:	e50bc19c 	str	ip, [fp, #-412]	; 0xfffffe64
     c2c:	e50b10f4 	str	r1, [fp, #-244]	; 0xffffff0c
     c30:	e50b31a0 	str	r3, [fp, #-416]	; 0xfffffe60
     c34:	e590301c 	ldr	r3, [r0, #28]
     c38:	e50b31a4 	str	r3, [fp, #-420]	; 0xfffffe5c
     c3c:	e5903024 	ldr	r3, [r0, #36]	; 0x24
     c40:	e50b31a8 	str	r3, [fp, #-424]	; 0xfffffe58
     c44:	e5903028 	ldr	r3, [r0, #40]	; 0x28
     c48:	e50b3118 	str	r3, [fp, #-280]	; 0xfffffee8
     c4c:	e590302c 	ldr	r3, [r0, #44]	; 0x2c
     c50:	e50b31ac 	str	r3, [fp, #-428]	; 0xfffffe54
     c54:	e5903030 	ldr	r3, [r0, #48]	; 0x30
     c58:	e0899004 	add	r9, r9, r4
     c5c:	e50b3174 	str	r3, [fp, #-372]	; 0xfffffe8c
     c60:	e35e0000 	cmp	lr, #0
     c64:	e5903034 	ldr	r3, [r0, #52]	; 0x34
     c68:	e50b90f0 	str	r9, [fp, #-240]	; 0xffffff10
     c6c:	e50b3190 	str	r3, [fp, #-400]	; 0xfffffe70
     c70:	e5909020 	ldr	r9, [r0, #32]
     c74:	0a000007 	beq	c98 <ETH_RX_SIZE+0x98>
     c78:	e5983128 	ldr	r3, [r8, #296]	; 0x128
     c7c:	e1520003 	cmp	r2, r3
     c80:	0a0000b4 	beq	f58 <RTR_TST2+0x54>
     c84:	e15e0004 	cmp	lr, r4
     c88:	9a000002 	bls	c98 <ETH_RX_SIZE+0x98>
     c8c:	e598312c 	ldr	r3, [r8, #300]	; 0x12c
     c90:	e1520003 	cmp	r2, r3
     c94:	0a0000b0 	beq	f5c <RTR_TST2+0x58>
     c98:	e59f18d0 	ldr	r1, [pc, #2256]	; 1570 <SV_SIZE+0x570>
     c9c:	e3a00002 	mov	r0, #2
     ca0:	fa000e7b 	blx	4694 <io_printf>
     ca4:	e3a03000 	mov	r3, #0
     ca8:	e50b3178 	str	r3, [fp, #-376]	; 0xfffffe88
     cac:	e598316c 	ldr	r3, [r8, #364]	; 0x16c
     cb0:	e3530000 	cmp	r3, #0
     cb4:	0a000017 	beq	d18 <ETH_RX_SIZE+0x118>
     cb8:	e5982140 	ldr	r2, [r8, #320]	; 0x140
     cbc:	e1560002 	cmp	r6, r2
     cc0:	0a00033f 	beq	19c4 <SV_SIZE+0x9c4>
     cc4:	e3530001 	cmp	r3, #1
     cc8:	9a000012 	bls	d18 <ETH_RX_SIZE+0x118>
     ccc:	e5982144 	ldr	r2, [r8, #324]	; 0x144
     cd0:	e1560002 	cmp	r6, r2
     cd4:	0a000338 	beq	19bc <SV_SIZE+0x9bc>
     cd8:	e3530002 	cmp	r3, #2
     cdc:	0a00000d 	beq	d18 <ETH_RX_SIZE+0x118>
     ce0:	e5982148 	ldr	r2, [r8, #328]	; 0x148
     ce4:	e1560002 	cmp	r6, r2
     ce8:	0a000331 	beq	19b4 <SV_SIZE+0x9b4>
     cec:	e3530003 	cmp	r3, #3
     cf0:	0a000008 	beq	d18 <ETH_RX_SIZE+0x118>
     cf4:	e598214c 	ldr	r2, [r8, #332]	; 0x14c
     cf8:	e1560002 	cmp	r6, r2
     cfc:	0a00008d 	beq	f38 <RTR_TST2+0x34>
     d00:	e3530004 	cmp	r3, #4
     d04:	0a000003 	beq	d18 <ETH_RX_SIZE+0x118>
     d08:	e5983150 	ldr	r3, [r8, #336]	; 0x150
     d0c:	e1560003 	cmp	r6, r3
     d10:	03a03004 	moveq	r3, #4
     d14:	0a000088 	beq	f3c <RTR_TST2+0x38>
     d18:	e1a02006 	mov	r2, r6
     d1c:	e59f184c 	ldr	r1, [pc, #2124]	; 1570 <SV_SIZE+0x570>
     d20:	e3a00002 	mov	r0, #2
     d24:	fa000e5a 	blx	4694 <io_printf>
     d28:	e3a03000 	mov	r3, #0
     d2c:	e50b3198 	str	r3, [fp, #-408]	; 0xfffffe68
     d30:	e59f183c 	ldr	r1, [pc, #2108]	; 1574 <SV_SIZE+0x574>
     d34:	e3a00002 	mov	r0, #2
     d38:	fa000e55 	blx	4694 <io_printf>
     d3c:	e59831c4 	ldr	r3, [r8, #452]	; 0x1c4
     d40:	e3530000 	cmp	r3, #0
     d44:	0a000030 	beq	e0c <ETH_RX_SIZE+0x20c>
     d48:	e5982170 	ldr	r2, [r8, #368]	; 0x170
     d4c:	e1550002 	cmp	r5, r2
     d50:	0a00032b 	beq	1a04 <SV_SIZE+0xa04>
     d54:	e3530001 	cmp	r3, #1
     d58:	9a00002b 	bls	e0c <ETH_RX_SIZE+0x20c>
     d5c:	e5982174 	ldr	r2, [r8, #372]	; 0x174
     d60:	e1520005 	cmp	r2, r5
     d64:	0a000324 	beq	19fc <SV_SIZE+0x9fc>
     d68:	e3530002 	cmp	r3, #2
     d6c:	0a000026 	beq	e0c <ETH_RX_SIZE+0x20c>
     d70:	e5982178 	ldr	r2, [r8, #376]	; 0x178
     d74:	e1520005 	cmp	r2, r5
     d78:	0a00031d 	beq	19f4 <SV_SIZE+0x9f4>
     d7c:	e3530003 	cmp	r3, #3
     d80:	0a000021 	beq	e0c <ETH_RX_SIZE+0x20c>
     d84:	e598217c 	ldr	r2, [r8, #380]	; 0x17c
     d88:	e1520005 	cmp	r2, r5
     d8c:	0a000316 	beq	19ec <SV_SIZE+0x9ec>
     d90:	e3530004 	cmp	r3, #4
     d94:	0a00001c 	beq	e0c <ETH_RX_SIZE+0x20c>
     d98:	e5982180 	ldr	r2, [r8, #384]	; 0x180
     d9c:	e1520005 	cmp	r2, r5
     da0:	0a00030f 	beq	19e4 <SV_SIZE+0x9e4>
     da4:	e3530005 	cmp	r3, #5
     da8:	0a000017 	beq	e0c <ETH_RX_SIZE+0x20c>
     dac:	e5982184 	ldr	r2, [r8, #388]	; 0x184
     db0:	e1520005 	cmp	r2, r5
     db4:	0a000308 	beq	19dc <SV_SIZE+0x9dc>
     db8:	e3530006 	cmp	r3, #6
     dbc:	0a000012 	beq	e0c <ETH_RX_SIZE+0x20c>
     dc0:	e5982188 	ldr	r2, [r8, #392]	; 0x188
     dc4:	e1550002 	cmp	r5, r2
     dc8:	0a000301 	beq	19d4 <SV_SIZE+0x9d4>
     dcc:	e3530007 	cmp	r3, #7
     dd0:	0a00000d 	beq	e0c <ETH_RX_SIZE+0x20c>
     dd4:	e598218c 	ldr	r2, [r8, #396]	; 0x18c
     dd8:	e1550002 	cmp	r5, r2
     ddc:	0a0002fa 	beq	19cc <SV_SIZE+0x9cc>
     de0:	e3530008 	cmp	r3, #8
     de4:	0a000008 	beq	e0c <ETH_RX_SIZE+0x20c>
     de8:	e5982190 	ldr	r2, [r8, #400]	; 0x190
     dec:	e1550002 	cmp	r5, r2
     df0:	0a000061 	beq	f7c <RTR_TST2+0x78>
     df4:	e3530009 	cmp	r3, #9
     df8:	0a000003 	beq	e0c <ETH_RX_SIZE+0x20c>
     dfc:	e5983194 	ldr	r3, [r8, #404]	; 0x194
     e00:	e1550003 	cmp	r5, r3
     e04:	03a03009 	moveq	r3, #9
     e08:	0a00005c 	beq	f80 <RTR_TST2+0x7c>
     e0c:	e1a02005 	mov	r2, r5
     e10:	e59f1758 	ldr	r1, [pc, #1880]	; 1570 <SV_SIZE+0x570>
     e14:	e3a00002 	mov	r0, #2
     e18:	fa000e1d 	blx	4694 <io_printf>
     e1c:	e3a03000 	mov	r3, #0
     e20:	e50b3194 	str	r3, [fp, #-404]	; 0xfffffe6c
     e24:	e59f174c 	ldr	r1, [pc, #1868]	; 1578 <SV_SIZE+0x578>
     e28:	e3a00002 	mov	r0, #2
     e2c:	fa000e18 	blx	4694 <io_printf>
     e30:	e59831c4 	ldr	r3, [r8, #452]	; 0x1c4
     e34:	e3530000 	cmp	r3, #0
     e38:	0a00002f 	beq	efc <ETH_RX_SIZE+0x2fc>
     e3c:	e5982170 	ldr	r2, [r8, #368]	; 0x170
     e40:	e15a0002 	cmp	sl, r2
     e44:	0a0002b0 	beq	190c <SV_SIZE+0x90c>
     e48:	e3530001 	cmp	r3, #1
     e4c:	9a00002a 	bls	efc <ETH_RX_SIZE+0x2fc>
     e50:	e5982174 	ldr	r2, [r8, #372]	; 0x174
     e54:	e15a0002 	cmp	sl, r2
     e58:	0a0002a9 	beq	1904 <SV_SIZE+0x904>
     e5c:	e3530002 	cmp	r3, #2
     e60:	0a000025 	beq	efc <ETH_RX_SIZE+0x2fc>
     e64:	e5982178 	ldr	r2, [r8, #376]	; 0x178
     e68:	e15a0002 	cmp	sl, r2
     e6c:	0a0002a2 	beq	18fc <SV_SIZE+0x8fc>
     e70:	e3530003 	cmp	r3, #3
     e74:	0a000020 	beq	efc <ETH_RX_SIZE+0x2fc>
     e78:	e598217c 	ldr	r2, [r8, #380]	; 0x17c
     e7c:	e15a0002 	cmp	sl, r2
     e80:	0a00029b 	beq	18f4 <SV_SIZE+0x8f4>
     e84:	e3530004 	cmp	r3, #4
     e88:	0a00001b 	beq	efc <ETH_RX_SIZE+0x2fc>
     e8c:	e5982180 	ldr	r2, [r8, #384]	; 0x180
     e90:	e15a0002 	cmp	sl, r2
     e94:	0a000294 	beq	18ec <SV_SIZE+0x8ec>
     e98:	e3530005 	cmp	r3, #5
     e9c:	0a000016 	beq	efc <ETH_RX_SIZE+0x2fc>
     ea0:	e5982184 	ldr	r2, [r8, #388]	; 0x184
     ea4:	e15a0002 	cmp	sl, r2
     ea8:	0a00028d 	beq	18e4 <SV_SIZE+0x8e4>
     eac:	e3530006 	cmp	r3, #6
     eb0:	0a000011 	beq	efc <ETH_RX_SIZE+0x2fc>
     eb4:	e5982188 	ldr	r2, [r8, #392]	; 0x188
     eb8:	e15a0002 	cmp	sl, r2
     ebc:	0a000286 	beq	18dc <SV_SIZE+0x8dc>
     ec0:	e3530007 	cmp	r3, #7
     ec4:	0a00000c 	beq	efc <ETH_RX_SIZE+0x2fc>
     ec8:	e598218c 	ldr	r2, [r8, #396]	; 0x18c
     ecc:	e15a0002 	cmp	sl, r2
     ed0:	0a000067 	beq	1074 <SV_SIZE+0x74>
     ed4:	e3530008 	cmp	r3, #8
     ed8:	0a000007 	beq	efc <ETH_RX_SIZE+0x2fc>
     edc:	e5982190 	ldr	r2, [r8, #400]	; 0x190
     ee0:	e15a0002 	cmp	sl, r2
     ee4:	0a0002b0 	beq	19ac <SV_SIZE+0x9ac>
     ee8:	e3530009 	cmp	r3, #9
     eec:	0a000002 	beq	efc <ETH_RX_SIZE+0x2fc>
     ef0:	e5983194 	ldr	r3, [r8, #404]	; 0x194
     ef4:	e153000a 	cmp	r3, sl
     ef8:	0a0002a9 	beq	19a4 <SV_SIZE+0x9a4>
     efc:	e1a0200a 	mov	r2, sl
     f00:	e59f1668 	ldr	r1, [pc, #1640]	; 1570 <SV_SIZE+0x570>
     f04:	e3a00002 	mov	r0, #2
     f08:	fa000de1 	blx	4694 <io_printf>
     f0c:	e51b2154 	ldr	r2, [fp, #-340]	; 0xfffffeac
     f10:	e59f1664 	ldr	r1, [pc, #1636]	; 157c <SV_SIZE+0x57c>
     f14:	e3a00002 	mov	r0, #2
     f18:	fa000ddd 	blx	4694 <io_printf>
     f1c:	e59f165c 	ldr	r1, [pc, #1628]	; 1580 <SV_SIZE+0x580>
     f20:	e3a00002 	mov	r0, #2
     f24:	fa000dda 	blx	4694 <io_printf>
     f28:	e3a00009 	mov	r0, #9
     f2c:	ebfffc7e 	bl	12c <rt_error>
     f30:	e24bd020 	sub	sp, fp, #32
     f34:	e8bd8ff0 	pop	{r4, r5, r6, r7, r8, r9, sl, fp, pc}
     f38:	e3a03003 	mov	r3, #3
     f3c:	e0883103 	add	r3, r8, r3, lsl #2
     f40:	e5933154 	ldr	r3, [r3, #340]	; 0x154
     f44:	e59811cc 	ldr	r1, [r8, #460]	; 0x1cc
     f48:	e24b0e11 	sub	r0, fp, #272	; 0x110
     f4c:	e12fff33 	blx	r3
     f50:	e50b0198 	str	r0, [fp, #-408]	; 0xfffffe68
     f54:	eaffff75 	b	d30 <ETH_RX_SIZE+0x130>
     f58:	e3a04000 	mov	r4, #0
     f5c:	e2844002 	add	r4, r4, #2
     f60:	e0883104 	add	r3, r8, r4, lsl #2
     f64:	e5933128 	ldr	r3, [r3, #296]	; 0x128
     f68:	e59811c8 	ldr	r1, [r8, #456]	; 0x1c8
     f6c:	e24b0e11 	sub	r0, fp, #272	; 0x110
     f70:	e12fff33 	blx	r3
     f74:	e50b0178 	str	r0, [fp, #-376]	; 0xfffffe88
     f78:	eaffff4b 	b	cac <ETH_RX_SIZE+0xac>
     f7c:	e3a03008 	mov	r3, #8
     f80:	e0883103 	add	r3, r8, r3, lsl #2
     f84:	e5933198 	ldr	r3, [r3, #408]	; 0x198
     f88:	e59811d4 	ldr	r1, [r8, #468]	; 0x1d4
     f8c:	e24b0e11 	sub	r0, fp, #272	; 0x110
     f90:	e12fff33 	blx	r3
     f94:	e50b0194 	str	r0, [fp, #-404]	; 0xfffffe6c
     f98:	eaffffa1 	b	e24 <ETH_RX_SIZE+0x224>
     f9c:	e51b317c 	ldr	r3, [fp, #-380]	; 0xfffffe84
     fa0:	e51b21dc 	ldr	r2, [fp, #-476]	; 0xfffffe24
     fa4:	e2833004 	add	r3, r3, #4
     fa8:	e1520003 	cmp	r2, r3
     fac:	e50b317c 	str	r3, [fp, #-380]	; 0xfffffe84
     fb0:	1afffed8 	bne	b18 <ZI_LENGTH+0x26c>
     fb4:	e59f15a0 	ldr	r1, [pc, #1440]	; 155c <SV_SIZE+0x55c>
     fb8:	e3a00002 	mov	r0, #2
     fbc:	fa000db4 	blx	4694 <io_printf>
     fc0:	e59f3570 	ldr	r3, [pc, #1392]	; 1538 <SV_SIZE+0x538>
     fc4:	e59811d8 	ldr	r1, [r8, #472]	; 0x1d8
     fc8:	e5930018 	ldr	r0, [r3, #24]
     fcc:	e3a02001 	mov	r2, #1
     fd0:	fa000cef 	blx	4394 <sark_xfree>
     fd4:	e59f35dc 	ldr	r3, [pc, #1500]	; 15b8 <SV_SIZE+0x5b8>
     fd8:	e3a02001 	mov	r2, #1
     fdc:	e593004c 	ldr	r0, [r3, #76]	; 0x4c
     fe0:	e51b11e0 	ldr	r1, [fp, #-480]	; 0xfffffe20
     fe4:	e3a04000 	mov	r4, #0
     fe8:	e58841d8 	str	r4, [r8, #472]	; 0x1d8
     fec:	fa000ce8 	blx	4394 <sark_xfree>
     ff0:	e59f158c 	ldr	r1, [pc, #1420]	; 1584 <SV_SIZE+0x584>
     ff4:	e3a00002 	mov	r0, #2
     ff8:	fa000da5 	blx	4694 <io_printf>
     ffc:	e3a0000b 	mov	r0, #11
    1000:	fa000ae7 	blx	3ba4 <sark_cpu_state>
    1004:	e1a00004 	mov	r0, r4
    1008:	fa000f30 	blx	4cd0 <spin1_exit>
    100c:	e24bd020 	sub	sp, fp, #32
    1010:	e8bd8ff0 	pop	{r4, r5, r6, r7, r8, r9, sl, fp, pc}
    1014:	e3a0300a 	mov	r3, #10
    1018:	e59f250c 	ldr	r2, [pc, #1292]	; 152c <SV_SIZE+0x52c>
    101c:	e59f1590 	ldr	r1, [pc, #1424]	; 15b4 <SV_SIZE+0x5b4>
    1020:	e3a00002 	mov	r0, #2
    1024:	fa000d9a 	blx	4694 <io_printf>
    1028:	eafffe32 	b	8f8 <ZI_LENGTH+0x4c>
    102c:	e3a0300a 	mov	r3, #10
    1030:	e59f24ec 	ldr	r2, [pc, #1260]	; 1524 <SV_SIZE+0x524>
    1034:	e59f1578 	ldr	r1, [pc, #1400]	; 15b4 <SV_SIZE+0x5b4>
    1038:	e3a00002 	mov	r0, #2
    103c:	fa000d94 	blx	4694 <io_printf>
    1040:	eafffe1a 	b	8b0 <ZI_LENGTH+0x4>
    1044:	e3a0300a 	mov	r3, #10
    1048:	e59f24cc 	ldr	r2, [pc, #1228]	; 151c <SV_SIZE+0x51c>
    104c:	e59f1560 	ldr	r1, [pc, #1376]	; 15b4 <SV_SIZE+0x5b4>
    1050:	e3a00002 	mov	r0, #2
    1054:	fa000d8e 	blx	4694 <io_printf>
    1058:	eafffe02 	b	868 <STACK_SIZE+0x68>
    105c:	e3a0300a 	mov	r3, #10
    1060:	e59f24ac 	ldr	r2, [pc, #1196]	; 1514 <SV_SIZE+0x514>
    1064:	e59f1548 	ldr	r1, [pc, #1352]	; 15b4 <SV_SIZE+0x5b4>
    1068:	e3a00002 	mov	r0, #2
    106c:	fa000d88 	blx	4694 <io_printf>
    1070:	eafffdea 	b	820 <STACK_SIZE+0x20>
    1074:	e3a03007 	mov	r3, #7
    1078:	e0883103 	add	r3, r8, r3, lsl #2
    107c:	e5933198 	ldr	r3, [r3, #408]	; 0x198
    1080:	e59811d0 	ldr	r1, [r8, #464]	; 0x1d0
    1084:	e24b0e11 	sub	r0, fp, #272	; 0x110
    1088:	e12fff33 	blx	r3
    108c:	e51b3178 	ldr	r3, [fp, #-376]	; 0xfffffe88
    1090:	e51b2198 	ldr	r2, [fp, #-408]	; 0xfffffe68
    1094:	e3520000 	cmp	r2, #0
    1098:	13530000 	cmpne	r3, #0
    109c:	e50b01b4 	str	r0, [fp, #-436]	; 0xfffffe4c
    10a0:	0affff99 	beq	f0c <RTR_TST2+0x8>
    10a4:	e51b2194 	ldr	r2, [fp, #-404]	; 0xfffffe6c
    10a8:	e3520000 	cmp	r2, #0
    10ac:	13500000 	cmpne	r0, #0
    10b0:	03a02001 	moveq	r2, #1
    10b4:	13a02000 	movne	r2, #0
    10b8:	0affff93 	beq	f0c <RTR_TST2+0x8>
    10bc:	e51b3178 	ldr	r3, [fp, #-376]	; 0xfffffe88
    10c0:	e51b1110 	ldr	r1, [fp, #-272]	; 0xfffffef0
    10c4:	e5d3300c 	ldrb	r3, [r3, #12]
    10c8:	e50b11d4 	str	r1, [fp, #-468]	; 0xfffffe2c
    10cc:	e3530000 	cmp	r3, #0
    10d0:	1a0001ed 	bne	188c <SV_SIZE+0x88c>
    10d4:	e3590000 	cmp	r9, #0
    10d8:	0a0001f0 	beq	18a0 <SV_SIZE+0x8a0>
    10dc:	e51b2118 	ldr	r2, [fp, #-280]	; 0xfffffee8
    10e0:	e50b3184 	str	r3, [fp, #-388]	; 0xfffffe7c
    10e4:	e1933002 	orrs	r3, r3, r2
    10e8:	e50b2188 	str	r2, [fp, #-392]	; 0xfffffe78
    10ec:	0a0001eb 	beq	18a0 <SV_SIZE+0x8a0>
    10f0:	e51b3178 	ldr	r3, [fp, #-376]	; 0xfffffe88
    10f4:	e51b0184 	ldr	r0, [fp, #-388]	; 0xfffffe7c
    10f8:	e5933004 	ldr	r3, [r3, #4]
    10fc:	e1a01002 	mov	r1, r2
    1100:	e2833003 	add	r3, r3, #3
    1104:	e0833000 	add	r3, r3, r0
    1108:	e51be190 	ldr	lr, [fp, #-400]	; 0xfffffe70
    110c:	e51b0174 	ldr	r0, [fp, #-372]	; 0xfffffe8c
    1110:	e0833001 	add	r3, r3, r1
    1114:	e080c00e 	add	ip, r0, lr
    1118:	e2022001 	and	r2, r2, #1
    111c:	e08330a1 	add	r3, r3, r1, lsr #1
    1120:	e0833002 	add	r3, r3, r2
    1124:	e150000c 	cmp	r0, ip
    1128:	e50bc16c 	str	ip, [fp, #-364]	; 0xfffffe94
    112c:	e50b31c8 	str	r3, [fp, #-456]	; 0xfffffe38
    1130:	2afffe7b 	bcs	b24 <ZI_LENGTH+0x278>
    1134:	e287700a 	add	r7, r7, #10
    1138:	e3c73007 	bic	r3, r7, #7
    113c:	e50b31d8 	str	r3, [fp, #-472]	; 0xfffffe28
    1140:	e51b3180 	ldr	r3, [fp, #-384]	; 0xfffffe80
    1144:	e1a05000 	mov	r5, r0
    1148:	e1a03083 	lsl	r3, r3, #1
    114c:	e50b31e4 	str	r3, [fp, #-484]	; 0xfffffe1c
    1150:	e50be168 	str	lr, [fp, #-360]	; 0xfffffe98
    1154:	e24b3e11 	sub	r3, fp, #272	; 0x110
    1158:	e3a04000 	mov	r4, #0
    115c:	e2433002 	sub	r3, r3, #2
    1160:	e1c340b0 	strh	r4, [r3]
    1164:	e2853064 	add	r3, r5, #100	; 0x64
    1168:	e1a06003 	mov	r6, r3
    116c:	e50b3170 	str	r3, [fp, #-368]	; 0xfffffe90
    1170:	fa000f70 	blx	4f38 <spin1_get_core_id>
    1174:	fb000f68 	blx	4f1e <spin1_delay_us>
    1178:	e24b2e11 	sub	r2, fp, #272	; 0x110
    117c:	e2422002 	sub	r2, r2, #2
    1180:	e51b3168 	ldr	r3, [fp, #-360]	; 0xfffffe98
    1184:	e51b116c 	ldr	r1, [fp, #-364]	; 0xfffffe94
    1188:	e58d2050 	str	r2, [sp, #80]	; 0x50
    118c:	e59821d8 	ldr	r2, [r8, #472]	; 0x1d8
    1190:	e58d204c 	str	r2, [sp, #76]	; 0x4c
    1194:	e24b20fc 	sub	r2, fp, #252	; 0xfc
    1198:	e58d2048 	str	r2, [sp, #72]	; 0x48
    119c:	e51b2194 	ldr	r2, [fp, #-404]	; 0xfffffe6c
    11a0:	e58d2044 	str	r2, [sp, #68]	; 0x44
    11a4:	e51b21b4 	ldr	r2, [fp, #-436]	; 0xfffffe4c
    11a8:	e58d2040 	str	r2, [sp, #64]	; 0x40
    11ac:	e51b2198 	ldr	r2, [fp, #-408]	; 0xfffffe68
    11b0:	e58d203c 	str	r2, [sp, #60]	; 0x3c
    11b4:	e51b21c4 	ldr	r2, [fp, #-452]	; 0xfffffe3c
    11b8:	e58d2038 	str	r2, [sp, #56]	; 0x38
    11bc:	e51b21c0 	ldr	r2, [fp, #-448]	; 0xfffffe40
    11c0:	e58d2034 	str	r2, [sp, #52]	; 0x34
    11c4:	e51b21ac 	ldr	r2, [fp, #-428]	; 0xfffffe54
    11c8:	e58d2030 	str	r2, [sp, #48]	; 0x30
    11cc:	e51b21a8 	ldr	r2, [fp, #-424]	; 0xfffffe58
    11d0:	e58d202c 	str	r2, [sp, #44]	; 0x2c
    11d4:	e58d5024 	str	r5, [sp, #36]	; 0x24
    11d8:	e51b2190 	ldr	r2, [fp, #-400]	; 0xfffffe70
    11dc:	e58d2020 	str	r2, [sp, #32]
    11e0:	e51b2174 	ldr	r2, [fp, #-372]	; 0xfffffe8c
    11e4:	e58d201c 	str	r2, [sp, #28]
    11e8:	e51b21a0 	ldr	r2, [fp, #-416]	; 0xfffffe60
    11ec:	e58d2018 	str	r2, [sp, #24]
    11f0:	e51b219c 	ldr	r2, [fp, #-412]	; 0xfffffe64
    11f4:	e58d2014 	str	r2, [sp, #20]
    11f8:	e51b21bc 	ldr	r2, [fp, #-444]	; 0xfffffe44
    11fc:	e58d2010 	str	r2, [sp, #16]
    1200:	e51b21b8 	ldr	r2, [fp, #-440]	; 0xfffffe48
    1204:	e58d200c 	str	r2, [sp, #12]
    1208:	e51b21b0 	ldr	r2, [fp, #-432]	; 0xfffffe50
    120c:	e58d2008 	str	r2, [sp, #8]
    1210:	e51b21c8 	ldr	r2, [fp, #-456]	; 0xfffffe38
    1214:	e58d2004 	str	r2, [sp, #4]
    1218:	e1510006 	cmp	r1, r6
    121c:	23a03064 	movcs	r3, #100	; 0x64
    1220:	e51b2188 	ldr	r2, [fp, #-392]	; 0xfffffe78
    1224:	e58d2000 	str	r2, [sp]
    1228:	e58d3028 	str	r3, [sp, #40]	; 0x28
    122c:	e51b3184 	ldr	r3, [fp, #-388]	; 0xfffffe7c
    1230:	e51b21a4 	ldr	r2, [fp, #-420]	; 0xfffffe5c
    1234:	e51b118c 	ldr	r1, [fp, #-396]	; 0xfffffe74
    1238:	e51b0178 	ldr	r0, [fp, #-376]	; 0xfffffe88
    123c:	eb000620 	bl	2ac4 <_ZNK17ConnectionBuilder15MatrixGenerator4Base8GenerateEPmmmmmmmmmmmmmmmmPlmPNS_18ConnectorGenerator4BaseEPKNS_14ParamGenerator4BaseESA_RN6Common6Random10MarsKiss64EPtRt>
    1240:	e1500004 	cmp	r0, r4
    1244:	0a0001a0 	beq	18cc <SV_SIZE+0x8cc>
    1248:	e24b3e11 	sub	r3, fp, #272	; 0x110
    124c:	e2433002 	sub	r3, r3, #2
    1250:	e1d330b0 	ldrh	r3, [r3]
    1254:	e50b3118 	str	r3, [fp, #-280]	; 0xfffffee8
    1258:	e3530000 	cmp	r3, #0
    125c:	0a00015b 	beq	17d0 <SV_SIZE+0x7d0>
    1260:	e59831d8 	ldr	r3, [r8, #472]	; 0x1d8
    1264:	e50b3120 	str	r3, [fp, #-288]	; 0xfffffee0
    1268:	fa000f32 	blx	4f38 <spin1_get_core_id>
    126c:	e24b2024 	sub	r2, fp, #36	; 0x24
    1270:	e59f1310 	ldr	r1, [pc, #784]	; 1588 <SV_SIZE+0x588>
    1274:	e50bd1d0 	str	sp, [fp, #-464]	; 0xfffffe30
    1278:	e2003003 	and	r3, r0, #3
    127c:	e0823103 	add	r3, r2, r3, lsl #2
    1280:	e51330e8 	ldr	r3, [r3, #-232]	; 0xffffff18
    1284:	e3a00002 	mov	r0, #2
    1288:	e50b315c 	str	r3, [fp, #-348]	; 0xfffffea4
    128c:	fa000d00 	blx	4694 <io_printf>
    1290:	e51b31d8 	ldr	r3, [fp, #-472]	; 0xfffffe28
    1294:	e04dd003 	sub	sp, sp, r3
    1298:	e51b3180 	ldr	r3, [fp, #-384]	; 0xfffffe80
    129c:	e3530000 	cmp	r3, #0
    12a0:	e28d3058 	add	r3, sp, #88	; 0x58
    12a4:	e50b3144 	str	r3, [fp, #-324]	; 0xfffffebc
    12a8:	0a000147 	beq	17cc <SV_SIZE+0x7cc>
    12ac:	e1a01004 	mov	r1, r4
    12b0:	e1a02004 	mov	r2, r4
    12b4:	e2433004 	sub	r3, r3, #4
    12b8:	e51b0180 	ldr	r0, [fp, #-384]	; 0xfffffe80
    12bc:	ea000000 	b	12c4 <SV_SIZE+0x2c4>
    12c0:	e1a01009 	mov	r1, r9
    12c4:	e2819001 	add	r9, r1, #1
    12c8:	e1500009 	cmp	r0, r9
    12cc:	e5a32004 	str	r2, [r3, #4]!
    12d0:	1afffffa 	bne	12c0 <SV_SIZE+0x2c0>
    12d4:	e51b31e4 	ldr	r3, [fp, #-484]	; 0xfffffe1c
    12d8:	e51b2180 	ldr	r2, [fp, #-384]	; 0xfffffe80
    12dc:	e2833008 	add	r3, r3, #8
    12e0:	e3c33007 	bic	r3, r3, #7
    12e4:	e04dd003 	sub	sp, sp, r3
    12e8:	e28d3058 	add	r3, sp, #88	; 0x58
    12ec:	e3520006 	cmp	r2, #6
    12f0:	e50b3128 	str	r3, [fp, #-296]	; 0xfffffed8
    12f4:	e50b11cc 	str	r1, [fp, #-460]	; 0xfffffe34
    12f8:	e3a03000 	mov	r3, #0
    12fc:	91a03002 	movls	r3, r2
    1300:	8a00016d 	bhi	18bc <SV_SIZE+0x8bc>
    1304:	e51b1128 	ldr	r1, [fp, #-296]	; 0xfffffed8
    1308:	e3a02000 	mov	r2, #0
    130c:	e3530001 	cmp	r3, #1
    1310:	e1c120b0 	strh	r2, [r1]
    1314:	0a000147 	beq	1838 <SV_SIZE+0x838>
    1318:	e3530002 	cmp	r3, #2
    131c:	e1c120b2 	strh	r2, [r1, #2]
    1320:	0a000144 	beq	1838 <SV_SIZE+0x838>
    1324:	e3530003 	cmp	r3, #3
    1328:	e1c120b4 	strh	r2, [r1, #4]
    132c:	0a000141 	beq	1838 <SV_SIZE+0x838>
    1330:	e3530004 	cmp	r3, #4
    1334:	e1c120b6 	strh	r2, [r1, #6]
    1338:	0a00013e 	beq	1838 <SV_SIZE+0x838>
    133c:	e3530005 	cmp	r3, #5
    1340:	e1c120b8 	strh	r2, [r1, #8]
    1344:	0a00013b 	beq	1838 <SV_SIZE+0x838>
    1348:	e1590003 	cmp	r9, r3
    134c:	e1c120ba 	strh	r2, [r1, #10]
    1350:	e3a02006 	mov	r2, #6
    1354:	0a00013a 	beq	1844 <SV_SIZE+0x844>
    1358:	e049e003 	sub	lr, r9, r3
    135c:	e24e0002 	sub	r0, lr, #2
    1360:	e1a000a0 	lsr	r0, r0, #1
    1364:	e2800001 	add	r0, r0, #1
    1368:	e35e0001 	cmp	lr, #1
    136c:	e1a04080 	lsl	r4, r0, #1
    1370:	0a00000a 	beq	13a0 <SV_SIZE+0x3a0>
    1374:	e51bc128 	ldr	ip, [fp, #-296]	; 0xfffffed8
    1378:	e3a01000 	mov	r1, #0
    137c:	e08c3083 	add	r3, ip, r3, lsl #1
    1380:	e1a0c001 	mov	ip, r1
    1384:	e2811001 	add	r1, r1, #1
    1388:	e1510000 	cmp	r1, r0
    138c:	e483c004 	str	ip, [r3], #4
    1390:	3afffffb 	bcc	1384 <SV_SIZE+0x384>
    1394:	e15e0004 	cmp	lr, r4
    1398:	e0822004 	add	r2, r2, r4
    139c:	0a000003 	beq	13b0 <SV_SIZE+0x3b0>
    13a0:	e51b1128 	ldr	r1, [fp, #-296]	; 0xfffffed8
    13a4:	e1a02082 	lsl	r2, r2, #1
    13a8:	e3a03000 	mov	r3, #0
    13ac:	e18130b2 	strh	r3, [r1, r2]
    13b0:	e51b2120 	ldr	r2, [fp, #-288]	; 0xfffffee0
    13b4:	e51b3174 	ldr	r3, [fp, #-372]	; 0xfffffe8c
    13b8:	e5d21000 	ldrb	r1, [r2]
    13bc:	e1a03803 	lsl	r3, r3, #16
    13c0:	e1a03823 	lsr	r3, r3, #16
    13c4:	e0831001 	add	r1, r3, r1
    13c8:	e50b3124 	str	r3, [fp, #-292]	; 0xfffffedc
    13cc:	e51b3134 	ldr	r3, [fp, #-308]	; 0xfffffecc
    13d0:	e1a01801 	lsl	r1, r1, #16
    13d4:	e5932000 	ldr	r2, [r3]
    13d8:	e51b3138 	ldr	r3, [fp, #-312]	; 0xfffffec8
    13dc:	e1a01821 	lsr	r1, r1, #16
    13e0:	e5933000 	ldr	r3, [r3]
    13e4:	e0823003 	add	r3, r2, r3
    13e8:	e1510002 	cmp	r1, r2
    13ec:	21530001 	cmpcs	r3, r1
    13f0:	8a000011 	bhi	143c <SV_SIZE+0x43c>
    13f4:	e3a03000 	mov	r3, #0
    13f8:	e51bc134 	ldr	ip, [fp, #-308]	; 0xfffffecc
    13fc:	e51b0138 	ldr	r0, [fp, #-312]	; 0xfffffec8
    1400:	e1a02003 	mov	r2, r3
    1404:	ea000009 	b	1430 <SV_SIZE+0x430>
    1408:	e5bce004 	ldr	lr, [ip, #4]!
    140c:	e5b03004 	ldr	r3, [r0, #4]!
    1410:	e08e3003 	add	r3, lr, r3
    1414:	e1510003 	cmp	r1, r3
    1418:	33a03001 	movcc	r3, #1
    141c:	23a03000 	movcs	r3, #0
    1420:	e151000e 	cmp	r1, lr
    1424:	33a03000 	movcc	r3, #0
    1428:	e3530000 	cmp	r3, #0
    142c:	1a0000ff 	bne	1830 <SV_SIZE+0x830>
    1430:	e2822001 	add	r2, r2, #1
    1434:	e1590002 	cmp	r9, r2
    1438:	1afffff2 	bne	1408 <SV_SIZE+0x408>
    143c:	e3a03000 	mov	r3, #0
    1440:	e50b313c 	str	r3, [fp, #-316]	; 0xfffffec4
    1444:	e3a03000 	mov	r3, #0
    1448:	e50b3148 	str	r3, [fp, #-328]	; 0xfffffeb8
    144c:	e51b313c 	ldr	r3, [fp, #-316]	; 0xfffffec4
    1450:	e3530000 	cmp	r3, #0
    1454:	12433001 	subne	r3, r3, #1
    1458:	1a000002 	bne	1468 <SV_SIZE+0x468>
    145c:	e51b31cc 	ldr	r3, [fp, #-460]	; 0xfffffe34
    1460:	e3a02000 	mov	r2, #0
    1464:	e50b213c 	str	r2, [fp, #-316]	; 0xfffffec4
    1468:	e51b2144 	ldr	r2, [fp, #-324]	; 0xfffffebc
    146c:	e51b1118 	ldr	r1, [fp, #-280]	; 0xfffffee8
    1470:	e7923103 	ldr	r3, [r2, r3, lsl #2]
    1474:	e1530001 	cmp	r3, r1
    1478:	2a0000d3 	bcs	17cc <SV_SIZE+0x7cc>
    147c:	e51b113c 	ldr	r1, [fp, #-316]	; 0xfffffec4
    1480:	e1a03101 	lsl	r3, r1, #2
    1484:	e7925101 	ldr	r5, [r2, r1, lsl #2]
    1488:	e0822003 	add	r2, r2, r3
    148c:	e50b212c 	str	r2, [fp, #-300]	; 0xfffffed4
    1490:	e51b2134 	ldr	r2, [fp, #-308]	; 0xfffffecc
    1494:	e50b3158 	str	r3, [fp, #-344]	; 0xfffffea8
    1498:	e0822003 	add	r2, r2, r3
    149c:	e50b2130 	str	r2, [fp, #-304]	; 0xfffffed0
    14a0:	e51b2138 	ldr	r2, [fp, #-312]	; 0xfffffec8
    14a4:	e1a01081 	lsl	r1, r1, #1
    14a8:	e0822003 	add	r2, r2, r3
    14ac:	e50b2140 	str	r2, [fp, #-320]	; 0xfffffec0
    14b0:	e51b2150 	ldr	r2, [fp, #-336]	; 0xfffffeb0
    14b4:	e2855001 	add	r5, r5, #1
    14b8:	e0823003 	add	r3, r2, r3
    14bc:	e50b3160 	str	r3, [fp, #-352]	; 0xfffffea0
    14c0:	e51b3128 	ldr	r3, [fp, #-296]	; 0xfffffed8
    14c4:	e50b114c 	str	r1, [fp, #-332]	; 0xfffffeb4
    14c8:	e0833001 	add	r3, r3, r1
    14cc:	e59f10b8 	ldr	r1, [pc, #184]	; 158c <SV_SIZE+0x58c>
    14d0:	e1a05805 	lsl	r5, r5, #16
    14d4:	e50b3164 	str	r3, [fp, #-356]	; 0xfffffe9c
    14d8:	e3a03000 	mov	r3, #0
    14dc:	e1a05825 	lsr	r5, r5, #16
    14e0:	e50b311c 	str	r3, [fp, #-284]	; 0xfffffee4
    14e4:	e1a02001 	mov	r2, r1
    14e8:	ea000052 	b	1638 <SV_SIZE+0x638>
    14ec:	0040000c 	.word	0x0040000c
    14f0:	000055b8 	.word	0x000055b8
    14f4:	00005678 	.word	0x00005678
    14f8:	00001ce8 	.word	0x00001ce8
    14fc:	00001cc8 	.word	0x00001cc8
    1500:	00001ca8 	.word	0x00001ca8
    1504:	00001c88 	.word	0x00001c88
    1508:	00001c68 	.word	0x00001c68
    150c:	000056a0 	.word	0x000056a0
    1510:	00001c48 	.word	0x00001c48
    1514:	5dd29aab 	.word	0x5dd29aab
    1518:	00001c28 	.word	0x00001c28
    151c:	f62c79b7 	.word	0xf62c79b7
    1520:	00001c08 	.word	0x00001c08
    1524:	218568e4 	.word	0x218568e4
    1528:	00001be8 	.word	0x00001be8
    152c:	68f9efb4 	.word	0x68f9efb4
    1530:	00001bc8 	.word	0x00001bc8
    1534:	000056c8 	.word	0x000056c8
    1538:	00400530 	.word	0x00400530
    153c:	00005704 	.word	0x00005704
    1540:	0000572c 	.word	0x0000572c
    1544:	0000575c 	.word	0x0000575c
    1548:	00005780 	.word	0x00005780
    154c:	000057b8 	.word	0x000057b8
    1550:	000057e4 	.word	0x000057e4
    1554:	00005818 	.word	0x00005818
    1558:	55555555 	.word	0x55555555
    155c:	000058bc 	.word	0x000058bc
    1560:	00005914 	.word	0x00005914
    1564:	6257f735 	.word	0x6257f735
    1568:	29a65eac 	.word	0x29a65eac
    156c:	00c6d785 	.word	0x00c6d785
    1570:	00005948 	.word	0x00005948
    1574:	00005984 	.word	0x00005984
    1578:	000059a0 	.word	0x000059a0
    157c:	00005a38 	.word	0x00005a38
    1580:	00005a88 	.word	0x00005a88
    1584:	000058e0 	.word	0x000058e0
    1588:	000059ec 	.word	0x000059ec
    158c:	0000014d 	.word	0x0000014d
    1590:	00002847 	.word	0x00002847
    1594:	00005a10 	.word	0x00005a10
    1598:	000059bc 	.word	0x000059bc
    159c:	cb6ad5d8 	.word	0xcb6ad5d8
    15a0:	94c789f1 	.word	0x94c789f1
    15a4:	4a45441e 	.word	0x4a45441e
    15a8:	e925a866 	.word	0xe925a866
    15ac:	2a9ae5dd 	.word	0x2a9ae5dd
    15b0:	d7246e52 	.word	0xd7246e52
    15b4:	0000561c 	.word	0x0000561c
    15b8:	e5007f00 	.word	0xe5007f00
    15bc:	0000584c 	.word	0x0000584c
    15c0:	00005878 	.word	0x00005878
    15c4:	6be53066 	.word	0x6be53066
    15c8:	00001d08 	.word	0x00001d08
    15cc:	1a2b3b59 	.word	0x1a2b3b59
    15d0:	00001d28 	.word	0x00001d28
    15d4:	000055dc 	.word	0x000055dc
    15d8:	e51b2140 	ldr	r2, [fp, #-320]	; 0xfffffec0
    15dc:	e5922000 	ldr	r2, [r2]
    15e0:	e082200e 	add	r2, r2, lr
    15e4:	e1a02802 	lsl	r2, r2, #16
    15e8:	e1540822 	cmp	r4, r2, lsr #16
    15ec:	aa000027 	bge	1690 <SV_SIZE+0x690>
    15f0:	e51b111c 	ldr	r1, [fp, #-284]	; 0xfffffee4
    15f4:	e24b0024 	sub	r0, fp, #36	; 0x24
    15f8:	e2812001 	add	r2, r1, #1
    15fc:	e1a02802 	lsl	r2, r2, #16
    1600:	e0801081 	add	r1, r0, r1, lsl #1
    1604:	e1413cb8 	strh	r3, [r1, #-200]	; 0xffffff38
    1608:	e1a03822 	lsr	r3, r2, #16
    160c:	e50b311c 	str	r3, [fp, #-284]	; 0xfffffee4
    1610:	e51b311c 	ldr	r3, [fp, #-284]	; 0xfffffee4
    1614:	e3530064 	cmp	r3, #100	; 0x64
    1618:	0a000041 	beq	1724 <SV_SIZE+0x724>
    161c:	e51b312c 	ldr	r3, [fp, #-300]	; 0xfffffed4
    1620:	e1a01006 	mov	r1, r6
    1624:	e1a02004 	mov	r2, r4
    1628:	e5835000 	str	r5, [r3]
    162c:	e2855001 	add	r5, r5, #1
    1630:	e1a05805 	lsl	r5, r5, #16
    1634:	e1a05825 	lsr	r5, r5, #16
    1638:	e245a001 	sub	sl, r5, #1
    163c:	e1a0a80a 	lsl	sl, sl, #16
    1640:	e51b3118 	ldr	r3, [fp, #-280]	; 0xfffffee8
    1644:	e1a0a82a 	lsr	sl, sl, #16
    1648:	e153000a 	cmp	r3, sl
    164c:	da000043 	ble	1760 <SV_SIZE+0x760>
    1650:	e51b3120 	ldr	r3, [fp, #-288]	; 0xfffffee0
    1654:	e1a0008a 	lsl	r0, sl, #1
    1658:	e19330b0 	ldrh	r3, [r3, r0]
    165c:	e51bc124 	ldr	ip, [fp, #-292]	; 0xfffffedc
    1660:	e20340ff 	and	r4, r3, #255	; 0xff
    1664:	e08c4004 	add	r4, ip, r4
    1668:	e1a04804 	lsl	r4, r4, #16
    166c:	e1a04824 	lsr	r4, r4, #16
    1670:	e1a06423 	lsr	r6, r3, #8
    1674:	e1540002 	cmp	r4, r2
    1678:	01560001 	cmpeq	r6, r1
    167c:	0affffea 	beq	162c <SV_SIZE+0x62c>
    1680:	e51b2130 	ldr	r2, [fp, #-304]	; 0xfffffed0
    1684:	e592e000 	ldr	lr, [r2]
    1688:	e15e0004 	cmp	lr, r4
    168c:	9affffd1 	bls	15d8 <SV_SIZE+0x5d8>
    1690:	e159000a 	cmp	r9, sl
    1694:	9affffdd 	bls	1610 <SV_SIZE+0x610>
    1698:	e51b3128 	ldr	r3, [fp, #-296]	; 0xfffffed8
    169c:	e1a0c10a 	lsl	ip, sl, #2
    16a0:	e0830000 	add	r0, r3, r0
    16a4:	e51b3134 	ldr	r3, [fp, #-308]	; 0xfffffecc
    16a8:	e1a0200a 	mov	r2, sl
    16ac:	e083700c 	add	r7, r3, ip
    16b0:	e51b3138 	ldr	r3, [fp, #-312]	; 0xfffffec8
    16b4:	e083c00c 	add	ip, r3, ip
    16b8:	ea000003 	b	16cc <SV_SIZE+0x6cc>
    16bc:	e2822001 	add	r2, r2, #1
    16c0:	e1590002 	cmp	r9, r2
    16c4:	e2800002 	add	r0, r0, #2
    16c8:	9affffd0 	bls	1610 <SV_SIZE+0x610>
    16cc:	e4971004 	ldr	r1, [r7], #4
    16d0:	e49c3004 	ldr	r3, [ip], #4
    16d4:	e0813003 	add	r3, r1, r3
    16d8:	e1540003 	cmp	r4, r3
    16dc:	33a03001 	movcc	r3, #1
    16e0:	23a03000 	movcs	r3, #0
    16e4:	e1540001 	cmp	r4, r1
    16e8:	33a03000 	movcc	r3, #0
    16ec:	e3530000 	cmp	r3, #0
    16f0:	0afffff1 	beq	16bc <SV_SIZE+0x6bc>
    16f4:	e1d030b0 	ldrh	r3, [r0]
    16f8:	e3530000 	cmp	r3, #0
    16fc:	1affffee 	bne	16bc <SV_SIZE+0x6bc>
    1700:	e51b1144 	ldr	r1, [fp, #-324]	; 0xfffffebc
    1704:	e1a03082 	lsl	r3, r2, #1
    1708:	e781a102 	str	sl, [r1, r2, lsl #2]
    170c:	e51b2128 	ldr	r2, [fp, #-296]	; 0xfffffed8
    1710:	e3a01001 	mov	r1, #1
    1714:	e18210b3 	strh	r1, [r2, r3]
    1718:	e51b311c 	ldr	r3, [fp, #-284]	; 0xfffffee4
    171c:	e3530064 	cmp	r3, #100	; 0x64
    1720:	1affffbd 	bne	161c <SV_SIZE+0x61c>
    1724:	e1a02003 	mov	r2, r3
    1728:	e51b3160 	ldr	r3, [fp, #-352]	; 0xfffffea0
    172c:	e24b10ec 	sub	r1, fp, #236	; 0xec
    1730:	e5930000 	ldr	r0, [r3]
    1734:	e58de000 	str	lr, [sp]
    1738:	e51b315c 	ldr	r3, [fp, #-348]	; 0xfffffea4
    173c:	ebfffb2c 	bl	3f4 <_ZN12_GLOBAL__N_1L13send_n_delaysEmPtmmm>
    1740:	e51f01b8 	ldr	r0, [pc, #-440]	; 1590 <SV_SIZE+0x590>
    1744:	fb000df4 	blx	4f1e <spin1_delay_us>
    1748:	e3a03000 	mov	r3, #0
    174c:	e50b311c 	str	r3, [fp, #-284]	; 0xfffffee4
    1750:	e51b3164 	ldr	r3, [fp, #-356]	; 0xfffffe9c
    1754:	e3a02001 	mov	r2, #1
    1758:	e1c320b0 	strh	r2, [r3]
    175c:	eaffffae 	b	161c <SV_SIZE+0x61c>
    1760:	e51b211c 	ldr	r2, [fp, #-284]	; 0xfffffee4
    1764:	e3520000 	cmp	r2, #0
    1768:	0a000008 	beq	1790 <SV_SIZE+0x790>
    176c:	e51b1150 	ldr	r1, [fp, #-336]	; 0xfffffeb0
    1770:	e51b3158 	ldr	r3, [fp, #-344]	; 0xfffffea8
    1774:	e7910003 	ldr	r0, [r1, r3]
    1778:	e51b1134 	ldr	r1, [fp, #-308]	; 0xfffffecc
    177c:	e7913003 	ldr	r3, [r1, r3]
    1780:	e58d3000 	str	r3, [sp]
    1784:	e51b315c 	ldr	r3, [fp, #-348]	; 0xfffffea4
    1788:	e24b10ec 	sub	r1, fp, #236	; 0xec
    178c:	ebfffb18 	bl	3f4 <_ZN12_GLOBAL__N_1L13send_n_delaysEmPtmmm>
    1790:	e51b3128 	ldr	r3, [fp, #-296]	; 0xfffffed8
    1794:	e51b214c 	ldr	r2, [fp, #-332]	; 0xfffffeb4
    1798:	e19330b2 	ldrh	r3, [r3, r2]
    179c:	e3530000 	cmp	r3, #0
    17a0:	1a000015 	bne	17fc <SV_SIZE+0x7fc>
    17a4:	e51b313c 	ldr	r3, [fp, #-316]	; 0xfffffec4
    17a8:	e2833001 	add	r3, r3, #1
    17ac:	e50b313c 	str	r3, [fp, #-316]	; 0xfffffec4
    17b0:	e1590003 	cmp	r9, r3
    17b4:	e51b3148 	ldr	r3, [fp, #-328]	; 0xfffffeb8
    17b8:	e2833001 	add	r3, r3, #1
    17bc:	e50b3148 	str	r3, [fp, #-328]	; 0xfffffeb8
    17c0:	0a00000a 	beq	17f0 <SV_SIZE+0x7f0>
    17c4:	e1590003 	cmp	r9, r3
    17c8:	8affff1f 	bhi	144c <SV_SIZE+0x44c>
    17cc:	e51bd1d0 	ldr	sp, [fp, #-464]	; 0xfffffe30
    17d0:	e51b316c 	ldr	r3, [fp, #-364]	; 0xfffffe94
    17d4:	e51b5170 	ldr	r5, [fp, #-368]	; 0xfffffe90
    17d8:	e1530005 	cmp	r3, r5
    17dc:	e51b3168 	ldr	r3, [fp, #-360]	; 0xfffffe98
    17e0:	e2433064 	sub	r3, r3, #100	; 0x64
    17e4:	e50b3168 	str	r3, [fp, #-360]	; 0xfffffe98
    17e8:	8afffe59 	bhi	1154 <SV_SIZE+0x154>
    17ec:	eafffccc 	b	b24 <ZI_LENGTH+0x278>
    17f0:	e1590003 	cmp	r9, r3
    17f4:	8affff18 	bhi	145c <SV_SIZE+0x45c>
    17f8:	eafffff3 	b	17cc <SV_SIZE+0x7cc>
    17fc:	e51b4150 	ldr	r4, [fp, #-336]	; 0xfffffeb0
    1800:	e51b5158 	ldr	r5, [fp, #-344]	; 0xfffffea8
    1804:	e51f1278 	ldr	r1, [pc, #-632]	; 1594 <SV_SIZE+0x594>
    1808:	e7942005 	ldr	r2, [r4, r5]
    180c:	e3a00002 	mov	r0, #2
    1810:	fa000b9f 	blx	4694 <io_printf>
    1814:	e3a02000 	mov	r2, #0
    1818:	e7940005 	ldr	r0, [r4, r5]
    181c:	e58d2000 	str	r2, [sp]
    1820:	e1a01002 	mov	r1, r2
    1824:	e51b315c 	ldr	r3, [fp, #-348]	; 0xfffffea4
    1828:	ebfffaf1 	bl	3f4 <_ZN12_GLOBAL__N_1L13send_n_delaysEmPtmmm>
    182c:	eaffffdc 	b	17a4 <SV_SIZE+0x7a4>
    1830:	e50b213c 	str	r2, [fp, #-316]	; 0xfffffec4
    1834:	eaffff02 	b	1444 <SV_SIZE+0x444>
    1838:	e1590003 	cmp	r9, r3
    183c:	e1a02003 	mov	r2, r3
    1840:	1afffec4 	bne	1358 <SV_SIZE+0x358>
    1844:	e51b2120 	ldr	r2, [fp, #-288]	; 0xfffffee0
    1848:	e51b3174 	ldr	r3, [fp, #-372]	; 0xfffffe8c
    184c:	e5d21000 	ldrb	r1, [r2]
    1850:	e1a03803 	lsl	r3, r3, #16
    1854:	e1a03823 	lsr	r3, r3, #16
    1858:	e0831001 	add	r1, r3, r1
    185c:	e50b3124 	str	r3, [fp, #-292]	; 0xfffffedc
    1860:	e51b3134 	ldr	r3, [fp, #-308]	; 0xfffffecc
    1864:	e1a01801 	lsl	r1, r1, #16
    1868:	e5932000 	ldr	r2, [r3]
    186c:	e51b3138 	ldr	r3, [fp, #-312]	; 0xfffffec8
    1870:	e1a01821 	lsr	r1, r1, #16
    1874:	e5933000 	ldr	r3, [r3]
    1878:	e0823003 	add	r3, r2, r3
    187c:	e1520001 	cmp	r2, r1
    1880:	91510003 	cmpls	r1, r3
    1884:	2afffeda 	bcs	13f4 <SV_SIZE+0x3f4>
    1888:	eafffeeb 	b	143c <SV_SIZE+0x43c>
    188c:	e1a03009 	mov	r3, r9
    1890:	e1933002 	orrs	r3, r3, r2
    1894:	e50b9184 	str	r9, [fp, #-388]	; 0xfffffe7c
    1898:	e50b2188 	str	r2, [fp, #-392]	; 0xfffffe78
    189c:	1afffe13 	bne	10f0 <SV_SIZE+0xf0>
    18a0:	e51b118c 	ldr	r1, [fp, #-396]	; 0xfffffe74
    18a4:	e3a02000 	mov	r2, #0
    18a8:	e5913000 	ldr	r3, [r1]
    18ac:	e1a03123 	lsr	r3, r3, #2
    18b0:	e2833001 	add	r3, r3, #1
    18b4:	e7812103 	str	r2, [r1, r3, lsl #2]
    18b8:	eafffc99 	b	b24 <ZI_LENGTH+0x278>
    18bc:	e1530003 	cmp	r3, r3
    18c0:	01a02003 	moveq	r2, r3
    18c4:	0afffea3 	beq	1358 <SV_SIZE+0x358>
    18c8:	eafffe8d 	b	1304 <SV_SIZE+0x304>
    18cc:	e51f133c 	ldr	r1, [pc, #-828]	; 1598 <SV_SIZE+0x598>
    18d0:	e3a00002 	mov	r0, #2
    18d4:	fa000b6e 	blx	4694 <io_printf>
    18d8:	eafffd8b 	b	f0c <RTR_TST2+0x8>
    18dc:	e3a03006 	mov	r3, #6
    18e0:	eafffde4 	b	1078 <SV_SIZE+0x78>
    18e4:	e3a03005 	mov	r3, #5
    18e8:	eafffde2 	b	1078 <SV_SIZE+0x78>
    18ec:	e3a03004 	mov	r3, #4
    18f0:	eafffde0 	b	1078 <SV_SIZE+0x78>
    18f4:	e3a03003 	mov	r3, #3
    18f8:	eafffdde 	b	1078 <SV_SIZE+0x78>
    18fc:	e3a03002 	mov	r3, #2
    1900:	eafffddc 	b	1078 <SV_SIZE+0x78>
    1904:	e3a03001 	mov	r3, #1
    1908:	eafffdda 	b	1078 <SV_SIZE+0x78>
    190c:	e3a03000 	mov	r3, #0
    1910:	eafffdd8 	b	1078 <SV_SIZE+0x78>
    1914:	e3a0300a 	mov	r3, #10
    1918:	e51f2384 	ldr	r2, [pc, #-900]	; 159c <SV_SIZE+0x59c>
    191c:	e51f1370 	ldr	r1, [pc, #-880]	; 15b4 <SV_SIZE+0x5b4>
    1920:	e3a00002 	mov	r0, #2
    1924:	fa000b5a 	blx	4694 <io_printf>
    1928:	eafffbaa 	b	7d8 <ETH_TX_SIZE+0x1d8>
    192c:	e3a03005 	mov	r3, #5
    1930:	e51f2398 	ldr	r2, [pc, #-920]	; 15a0 <SV_SIZE+0x5a0>
    1934:	e51f1388 	ldr	r1, [pc, #-904]	; 15b4 <SV_SIZE+0x5b4>
    1938:	e3a00002 	mov	r0, #2
    193c:	fa000b54 	blx	4694 <io_printf>
    1940:	eafffb8f 	b	784 <ETH_TX_SIZE+0x184>
    1944:	e3a03005 	mov	r3, #5
    1948:	e51f23ac 	ldr	r2, [pc, #-940]	; 15a4 <SV_SIZE+0x5a4>
    194c:	e51f13a0 	ldr	r1, [pc, #-928]	; 15b4 <SV_SIZE+0x5b4>
    1950:	e3a00002 	mov	r0, #2
    1954:	fa000b4e 	blx	4694 <io_printf>
    1958:	eafffb77 	b	73c <ETH_TX_SIZE+0x13c>
    195c:	e3a03005 	mov	r3, #5
    1960:	e51f23c0 	ldr	r2, [pc, #-960]	; 15a8 <SV_SIZE+0x5a8>
    1964:	e51f13b8 	ldr	r1, [pc, #-952]	; 15b4 <SV_SIZE+0x5b4>
    1968:	e3a00002 	mov	r0, #2
    196c:	fa000b48 	blx	4694 <io_printf>
    1970:	eafffb5f 	b	6f4 <ETH_TX_SIZE+0xf4>
    1974:	e3a03005 	mov	r3, #5
    1978:	e51f23d4 	ldr	r2, [pc, #-980]	; 15ac <SV_SIZE+0x5ac>
    197c:	e51f13d0 	ldr	r1, [pc, #-976]	; 15b4 <SV_SIZE+0x5b4>
    1980:	e3a00002 	mov	r0, #2
    1984:	fa000b42 	blx	4694 <io_printf>
    1988:	eafffb47 	b	6ac <ETH_TX_SIZE+0xac>
    198c:	e3a03005 	mov	r3, #5
    1990:	e51f23e8 	ldr	r2, [pc, #-1000]	; 15b0 <SV_SIZE+0x5b0>
    1994:	e51f13e8 	ldr	r1, [pc, #-1000]	; 15b4 <SV_SIZE+0x5b4>
    1998:	e3a00002 	mov	r0, #2
    199c:	fa000b3c 	blx	4694 <io_printf>
    19a0:	eafffb2f 	b	664 <ETH_TX_SIZE+0x64>
    19a4:	e3a03009 	mov	r3, #9
    19a8:	eafffdb2 	b	1078 <SV_SIZE+0x78>
    19ac:	e3a03008 	mov	r3, #8
    19b0:	eafffdb0 	b	1078 <SV_SIZE+0x78>
    19b4:	e3a03002 	mov	r3, #2
    19b8:	eafffd5f 	b	f3c <RTR_TST2+0x38>
    19bc:	e3a03001 	mov	r3, #1
    19c0:	eafffd5d 	b	f3c <RTR_TST2+0x38>
    19c4:	e3a03000 	mov	r3, #0
    19c8:	eafffd5b 	b	f3c <RTR_TST2+0x38>
    19cc:	e3a03007 	mov	r3, #7
    19d0:	eafffd6a 	b	f80 <RTR_TST2+0x7c>
    19d4:	e3a03006 	mov	r3, #6
    19d8:	eafffd68 	b	f80 <RTR_TST2+0x7c>
    19dc:	e3a03005 	mov	r3, #5
    19e0:	eafffd66 	b	f80 <RTR_TST2+0x7c>
    19e4:	e3a03004 	mov	r3, #4
    19e8:	eafffd64 	b	f80 <RTR_TST2+0x7c>
    19ec:	e3a03003 	mov	r3, #3
    19f0:	eafffd62 	b	f80 <RTR_TST2+0x7c>
    19f4:	e3a03002 	mov	r3, #2
    19f8:	eafffd60 	b	f80 <RTR_TST2+0x7c>
    19fc:	e3a03001 	mov	r3, #1
    1a00:	eafffd5e 	b	f80 <RTR_TST2+0x7c>
    1a04:	e3a03000 	mov	r3, #0
    1a08:	eafffd5c 	b	f80 <RTR_TST2+0x7c>
    1a0c:	e51f345c 	ldr	r3, [pc, #-1116]	; 15b8 <SV_SIZE+0x5b8>
    1a10:	e3a01001 	mov	r1, #1
    1a14:	e593004c 	ldr	r0, [r3, #76]	; 0x4c
    1a18:	fa000a86 	blx	4438 <sark_heap_max>
    1a1c:	e51f1468 	ldr	r1, [pc, #-1128]	; 15bc <SV_SIZE+0x5bc>
    1a20:	e1a02000 	mov	r2, r0
    1a24:	e3a00002 	mov	r0, #2
    1a28:	fa000b19 	blx	4694 <io_printf>
    1a2c:	e51f1474 	ldr	r1, [pc, #-1140]	; 15c0 <SV_SIZE+0x5c0>
    1a30:	e3a00002 	mov	r0, #2
    1a34:	fa000b16 	blx	4694 <io_printf>
    1a38:	eafffd37 	b	f1c <RTR_TST2+0x18>
    1a3c:	e51b718c 	ldr	r7, [fp, #-396]	; 0xfffffe74
    1a40:	e5972000 	ldr	r2, [r7]
    1a44:	e1b02122 	lsrs	r2, r2, #2
    1a48:	0afffc21 	beq	ad4 <ZI_LENGTH+0x228>
    1a4c:	e3a02000 	mov	r2, #0
    1a50:	e1a05002 	mov	r5, r2
    1a54:	e1a0e007 	mov	lr, r7
    1a58:	e5ae5004 	str	r5, [lr, #4]!
    1a5c:	e5976000 	ldr	r6, [r7]
    1a60:	e2822001 	add	r2, r2, #1
    1a64:	e1520126 	cmp	r2, r6, lsr #2
    1a68:	3afffffa 	bcc	1a58 <SV_SIZE+0xa58>
    1a6c:	eafffc18 	b	ad4 <ZI_LENGTH+0x228>
    1a70:	e51fc4b4 	ldr	ip, [pc, #-1204]	; 15c4 <SV_SIZE+0x5c4>
    1a74:	e0885103 	add	r5, r8, r3, lsl #2
    1a78:	e1a0200c 	mov	r2, ip
    1a7c:	e2833001 	add	r3, r3, #1
    1a80:	e51f44c0 	ldr	r4, [pc, #-1216]	; 15c8 <SV_SIZE+0x5c8>
    1a84:	e51f14b8 	ldr	r1, [pc, #-1208]	; 15d4 <SV_SIZE+0x5d4>
    1a88:	e3a00002 	mov	r0, #2
    1a8c:	e588313c 	str	r3, [r8, #316]	; 0x13c
    1a90:	e585c128 	str	ip, [r5, #296]	; 0x128
    1a94:	e5854130 	str	r4, [r5, #304]	; 0x130
    1a98:	fa000afd 	blx	4694 <io_printf>
    1a9c:	e5983138 	ldr	r3, [r8, #312]	; 0x138
    1aa0:	e3530017 	cmp	r3, #23
    1aa4:	93a03018 	movls	r3, #24
    1aa8:	95883138 	strls	r3, [r8, #312]	; 0x138
    1aac:	eafffad7 	b	610 <ETH_TX_SIZE+0x10>
    1ab0:	e51fc4ec 	ldr	ip, [pc, #-1260]	; 15cc <SV_SIZE+0x5cc>
    1ab4:	e0885103 	add	r5, r8, r3, lsl #2
    1ab8:	e1a0200c 	mov	r2, ip
    1abc:	e2833001 	add	r3, r3, #1
    1ac0:	e51f44f8 	ldr	r4, [pc, #-1272]	; 15d0 <SV_SIZE+0x5d0>
    1ac4:	e51f14f8 	ldr	r1, [pc, #-1272]	; 15d4 <SV_SIZE+0x5d4>
    1ac8:	e3a00002 	mov	r0, #2
    1acc:	e588313c 	str	r3, [r8, #316]	; 0x13c
    1ad0:	e585c128 	str	ip, [r5, #296]	; 0x128
    1ad4:	e5854130 	str	r4, [r5, #304]	; 0x130
    1ad8:	fa000aed 	blx	4694 <io_printf>
    1adc:	e5983138 	ldr	r3, [r8, #312]	; 0x138
    1ae0:	e3530013 	cmp	r3, #19
    1ae4:	93a03014 	movls	r3, #20
    1ae8:	95883138 	strls	r3, [r8, #312]	; 0x138
    1aec:	eafffabf 	b	5f0 <_ZN12_GLOBAL__N_19app_startEjj+0x44>

00001af0 <_ZN17ConnectionBuilder29data_specification_get_regionEmPm>:
    1af0:	e2800002 	add	r0, r0, #2
    1af4:	e7910100 	ldr	r0, [r1, r0, lsl #2]
    1af8:	e12fff1e 	bx	lr

00001afc <_ZN17ConnectionBuilder35data_specification_get_data_addressEv>:
    1afc:	e92d4010 	push	{r4, lr}
    1b00:	fa000d0f 	blx	4f44 <spin1_get_chip_id>
    1b04:	e1a04000 	mov	r4, r0
    1b08:	fa000d0a 	blx	4f38 <spin1_get_core_id>
    1b0c:	e1a02004 	mov	r2, r4
    1b10:	e59f1034 	ldr	r1, [pc, #52]	; 1b4c <_ZN17ConnectionBuilder35data_specification_get_data_addressEv+0x50>
    1b14:	e1a03000 	mov	r3, r0
    1b18:	e3a00002 	mov	r0, #2
    1b1c:	fa000adc 	blx	4694 <io_printf>
    1b20:	fa000d04 	blx	4f38 <spin1_get_core_id>
    1b24:	e59f1024 	ldr	r1, [pc, #36]	; 1b50 <_ZN17ConnectionBuilder35data_specification_get_data_addressEv+0x54>
    1b28:	e1a00380 	lsl	r0, r0, #7
    1b2c:	e28004e5 	add	r0, r0, #-452984832	; 0xe5000000
    1b30:	e2800a07 	add	r0, r0, #28672	; 0x7000
    1b34:	e5904070 	ldr	r4, [r0, #112]	; 0x70
    1b38:	e3a00002 	mov	r0, #2
    1b3c:	e1a02004 	mov	r2, r4
    1b40:	fa000ad3 	blx	4694 <io_printf>
    1b44:	e1a00004 	mov	r0, r4
    1b48:	e8bd8010 	pop	{r4, pc}
    1b4c:	0000575c 	.word	0x0000575c
    1b50:	00005780 	.word	0x00005780

00001b54 <__cxa_pure_virtual>:
    1b54:	e59f1004 	ldr	r1, [pc, #4]	; 1b60 <__cxa_pure_virtual+0xc>
    1b58:	e3a00002 	mov	r0, #2
    1b5c:	ea000e69 	b	5508 <__io_printf_from_arm>
    1b60:	00005ac0 	.word	0x00005ac0

00001b64 <c_main>:
    1b64:	e59f304c 	ldr	r3, [pc, #76]	; 1bb8 <c_main+0x54>
    1b68:	e92d4010 	push	{r4, lr}
    1b6c:	e5930018 	ldr	r0, [r3, #24]
    1b70:	e3a01000 	mov	r1, #0
    1b74:	fa000a2f 	blx	4438 <sark_heap_max>
    1b78:	e59f103c 	ldr	r1, [pc, #60]	; 1bbc <c_main+0x58>
    1b7c:	e1a02000 	mov	r2, r0
    1b80:	e3a00002 	mov	r0, #2
    1b84:	fa000ac2 	blx	4694 <io_printf>
    1b88:	e3a02000 	mov	r2, #0
    1b8c:	e1a01002 	mov	r1, r2
    1b90:	e3a03002 	mov	r3, #2
    1b94:	e59f0024 	ldr	r0, [pc, #36]	; 1bc0 <c_main+0x5c>
    1b98:	fa000d13 	blx	4fec <spin1_schedule_callback>
    1b9c:	e3a00003 	mov	r0, #3
    1ba0:	e3a02000 	mov	r2, #0
    1ba4:	e59f1018 	ldr	r1, [pc, #24]	; 1bc4 <c_main+0x60>
    1ba8:	fa000c26 	blx	4c48 <spin1_callback_on>
    1bac:	e3a00000 	mov	r0, #0
    1bb0:	e8bd4010 	pop	{r4, lr}
    1bb4:	ea000e51 	b	5500 <__spin1_start_from_arm>
    1bb8:	00400530 	.word	0x00400530
    1bbc:	00005704 	.word	0x00005704
    1bc0:	000005ac 	.word	0x000005ac
    1bc4:	000003cc 	.word	0x000003cc

00001bc8 <_ZN17ConnectionBuilder14ParamGenerator11Exponential6CreateERPmPv>:
    1bc8:	e92d4010 	push	{r4, lr}
    1bcc:	e2514000 	subs	r4, r1, #0
    1bd0:	0a000002 	beq	1be0 <_ZN17ConnectionBuilder14ParamGenerator11Exponential6CreateERPmPv+0x18>
    1bd4:	e1a01000 	mov	r1, r0
    1bd8:	e1a00004 	mov	r0, r4
    1bdc:	eb0006ed 	bl	3798 <_ZN17ConnectionBuilder14ParamGenerator11ExponentialC1ERPm>
    1be0:	e1a00004 	mov	r0, r4
    1be4:	e8bd8010 	pop	{r4, pc}

00001be8 <_ZN17ConnectionBuilder14ParamGenerator6Normal6CreateERPmPv>:
    1be8:	e92d4010 	push	{r4, lr}
    1bec:	e2514000 	subs	r4, r1, #0
    1bf0:	0a000002 	beq	1c00 <_ZN17ConnectionBuilder14ParamGenerator6Normal6CreateERPmPv+0x18>
    1bf4:	e1a01000 	mov	r1, r0
    1bf8:	e1a00004 	mov	r0, r4
    1bfc:	eb000699 	bl	3668 <_ZN17ConnectionBuilder14ParamGenerator6NormalC1ERPm>
    1c00:	e1a00004 	mov	r0, r4
    1c04:	e8bd8010 	pop	{r4, pc}

00001c08 <_ZN17ConnectionBuilder14ParamGenerator7Uniform6CreateERPmPv>:
    1c08:	e92d4010 	push	{r4, lr}
    1c0c:	e2514000 	subs	r4, r1, #0
    1c10:	0a000002 	beq	1c20 <_ZN17ConnectionBuilder14ParamGenerator7Uniform6CreateERPmPv+0x18>
    1c14:	e1a01000 	mov	r1, r0
    1c18:	e1a00004 	mov	r0, r4
    1c1c:	eb00067b 	bl	3610 <_ZN17ConnectionBuilder14ParamGenerator7UniformC1ERPm>
    1c20:	e1a00004 	mov	r0, r4
    1c24:	e8bd8010 	pop	{r4, pc}

00001c28 <_ZN17ConnectionBuilder14ParamGenerator10ConvKernel6CreateERPmPv>:
    1c28:	e92d4010 	push	{r4, lr}
    1c2c:	e2514000 	subs	r4, r1, #0
    1c30:	0a000002 	beq	1c40 <_ZN17ConnectionBuilder14ParamGenerator10ConvKernel6CreateERPmPv+0x18>
    1c34:	e1a01000 	mov	r1, r0
    1c38:	e1a00004 	mov	r0, r4
    1c3c:	eb00063b 	bl	3530 <_ZN17ConnectionBuilder14ParamGenerator10ConvKernelC1ERPm>
    1c40:	e1a00004 	mov	r0, r4
    1c44:	e8bd8010 	pop	{r4, pc}

00001c48 <_ZN17ConnectionBuilder14ParamGenerator8Constant6CreateERPmPv>:
    1c48:	e92d4010 	push	{r4, lr}
    1c4c:	e2514000 	subs	r4, r1, #0
    1c50:	0a000002 	beq	1c60 <_ZN17ConnectionBuilder14ParamGenerator8Constant6CreateERPmPv+0x18>
    1c54:	e1a01000 	mov	r1, r0
    1c58:	e1a00004 	mov	r0, r4
    1c5c:	eb00065a 	bl	35cc <_ZN17ConnectionBuilder14ParamGenerator8ConstantC1ERPm>
    1c60:	e1a00004 	mov	r0, r4
    1c64:	e8bd8010 	pop	{r4, pc}

00001c68 <_ZN17ConnectionBuilder18ConnectorGenerator7Mapping6CreateERPmPv>:
    1c68:	e92d4010 	push	{r4, lr}
    1c6c:	e2514000 	subs	r4, r1, #0
    1c70:	0a000002 	beq	1c80 <_ZN17ConnectionBuilder18ConnectorGenerator7Mapping6CreateERPmPv+0x18>
    1c74:	e1a01000 	mov	r1, r0
    1c78:	e1a00004 	mov	r0, r4
    1c7c:	eb000189 	bl	22a8 <_ZN17ConnectionBuilder18ConnectorGenerator7MappingC1ERPm>
    1c80:	e1a00004 	mov	r0, r4
    1c84:	e8bd8010 	pop	{r4, pc}

00001c88 <_ZN17ConnectionBuilder18ConnectorGenerator6Kernel6CreateERPmPv>:
    1c88:	e92d4010 	push	{r4, lr}
    1c8c:	e2514000 	subs	r4, r1, #0
    1c90:	0a000002 	beq	1ca0 <_ZN17ConnectionBuilder18ConnectorGenerator6Kernel6CreateERPmPv+0x18>
    1c94:	e1a01000 	mov	r1, r0
    1c98:	e1a00004 	mov	r0, r4
    1c9c:	eb0001a9 	bl	2348 <_ZN17ConnectionBuilder18ConnectorGenerator6KernelC1ERPm>
    1ca0:	e1a00004 	mov	r0, r4
    1ca4:	e8bd8010 	pop	{r4, pc}

00001ca8 <_ZN17ConnectionBuilder18ConnectorGenerator16FixedProbability6CreateERPmPv>:
    1ca8:	e92d4010 	push	{r4, lr}
    1cac:	e2514000 	subs	r4, r1, #0
    1cb0:	0a000002 	beq	1cc0 <_ZN17ConnectionBuilder18ConnectorGenerator16FixedProbability6CreateERPmPv+0x18>
    1cb4:	e1a01000 	mov	r1, r0
    1cb8:	e1a00004 	mov	r0, r4
    1cbc:	eb0001e4 	bl	2454 <_ZN17ConnectionBuilder18ConnectorGenerator16FixedProbabilityC1ERPm>
    1cc0:	e1a00004 	mov	r0, r4
    1cc4:	e8bd8010 	pop	{r4, pc}

00001cc8 <_ZN17ConnectionBuilder18ConnectorGenerator8OneToOne6CreateERPmPv>:
    1cc8:	e92d4010 	push	{r4, lr}
    1ccc:	e2514000 	subs	r4, r1, #0
    1cd0:	0a000002 	beq	1ce0 <_ZN17ConnectionBuilder18ConnectorGenerator8OneToOne6CreateERPmPv+0x18>
    1cd4:	e1a01000 	mov	r1, r0
    1cd8:	e1a00004 	mov	r0, r4
    1cdc:	eb0001d1 	bl	2428 <_ZN17ConnectionBuilder18ConnectorGenerator8OneToOneC1ERPm>
    1ce0:	e1a00004 	mov	r0, r4
    1ce4:	e8bd8010 	pop	{r4, pc}

00001ce8 <_ZN17ConnectionBuilder18ConnectorGenerator8AllToAll6CreateERPmPv>:
    1ce8:	e92d4010 	push	{r4, lr}
    1cec:	e2514000 	subs	r4, r1, #0
    1cf0:	0a000002 	beq	1d00 <_ZN17ConnectionBuilder18ConnectorGenerator8AllToAll6CreateERPmPv+0x18>
    1cf4:	e1a01000 	mov	r1, r0
    1cf8:	e1a00004 	mov	r0, r4
    1cfc:	eb000158 	bl	2264 <_ZN17ConnectionBuilder18ConnectorGenerator8AllToAllC1ERPm>
    1d00:	e1a00004 	mov	r0, r4
    1d04:	e8bd8010 	pop	{r4, pc}

00001d08 <_ZN17ConnectionBuilder15MatrixGenerator7Plastic6CreateERPmPv>:
    1d08:	e92d4010 	push	{r4, lr}
    1d0c:	e2514000 	subs	r4, r1, #0
    1d10:	0a000002 	beq	1d20 <_ZN17ConnectionBuilder15MatrixGenerator7Plastic6CreateERPmPv+0x18>
    1d14:	e1a01000 	mov	r1, r0
    1d18:	e1a00004 	mov	r0, r4
    1d1c:	eb000444 	bl	2e34 <_ZN17ConnectionBuilder15MatrixGenerator7PlasticC1ERPm>
    1d20:	e1a00004 	mov	r0, r4
    1d24:	e8bd8010 	pop	{r4, pc}

00001d28 <_ZN17ConnectionBuilder15MatrixGenerator6Static6CreateERPmPv>:
    1d28:	e92d4010 	push	{r4, lr}
    1d2c:	e2514000 	subs	r4, r1, #0
    1d30:	0a000002 	beq	1d40 <_ZN17ConnectionBuilder15MatrixGenerator6Static6CreateERPmPv+0x18>
    1d34:	e1a01000 	mov	r1, r0
    1d38:	e1a00004 	mov	r0, r4
    1d3c:	eb000427 	bl	2de0 <_ZN17ConnectionBuilder15MatrixGenerator6StaticC1ERPm>
    1d40:	e1a00004 	mov	r0, r4
    1d44:	e8bd8010 	pop	{r4, pc}

00001d48 <_GLOBAL__sub_I__ZN17ConnectionBuilder29data_specification_get_regionEmPm>:
    1d48:	e59f3010 	ldr	r3, [pc, #16]	; 1d60 <_GLOBAL__sub_I__ZN17ConnectionBuilder29data_specification_get_regionEmPm+0x18>
    1d4c:	e3a02000 	mov	r2, #0
    1d50:	e583213c 	str	r2, [r3, #316]	; 0x13c
    1d54:	e583216c 	str	r2, [r3, #364]	; 0x16c
    1d58:	e58321c4 	str	r2, [r3, #452]	; 0x1c4
    1d5c:	e12fff1e 	bx	lr
    1d60:	0040000c 	.word	0x0040000c

00001d64 <_ZN17ConnectionBuilder18ConnectorGenerator8AllToAll8GenerateEmmmmmmRN6Common6Random10MarsKiss64ERA512_t>:
    1d64:	e92d4010 	push	{r4, lr}
    1d68:	e59dc00c 	ldr	ip, [sp, #12]
    1d6c:	e59d4008 	ldr	r4, [sp, #8]
    1d70:	e35c0000 	cmp	ip, #0
    1d74:	0a000009 	beq	1da0 <_ZN17ConnectionBuilder18ConnectorGenerator8AllToAll8GenerateEmmmmmmRN6Common6Random10MarsKiss64ERA512_t+0x3c>
    1d78:	e5902004 	ldr	r2, [r0, #4]
    1d7c:	e3520000 	cmp	r2, #0
    1d80:	0a000008 	beq	1da8 <_ZN17ConnectionBuilder18ConnectorGenerator8AllToAll8GenerateEmmmmmmRN6Common6Random10MarsKiss64ERA512_t+0x44>
    1d84:	e59d3018 	ldr	r3, [sp, #24]
    1d88:	e2432002 	sub	r2, r3, #2
    1d8c:	e3a03000 	mov	r3, #0
    1d90:	e1e230b2 	strh	r3, [r2, #2]!
    1d94:	e2833001 	add	r3, r3, #1
    1d98:	e15c0003 	cmp	ip, r3
    1d9c:	1afffffb 	bne	1d90 <_ZN17ConnectionBuilder18ConnectorGenerator8AllToAll8GenerateEmmmmmmRN6Common6Random10MarsKiss64ERA512_t+0x2c>
    1da0:	e1a0000c 	mov	r0, ip
    1da4:	e8bd8010 	pop	{r4, pc}
    1da8:	e59d1018 	ldr	r1, [sp, #24]
    1dac:	e1a00002 	mov	r0, r2
    1db0:	e084e002 	add	lr, r4, r2
    1db4:	e153000e 	cmp	r3, lr
    1db8:	11c120b0 	strhne	r2, [r1]
    1dbc:	e2822001 	add	r2, r2, #1
    1dc0:	12800001 	addne	r0, r0, #1
    1dc4:	e15c0002 	cmp	ip, r2
    1dc8:	e2811002 	add	r1, r1, #2
    1dcc:	1afffff7 	bne	1db0 <_ZN17ConnectionBuilder18ConnectorGenerator8AllToAll8GenerateEmmmmmmRN6Common6Random10MarsKiss64ERA512_t+0x4c>
    1dd0:	e8bd8010 	pop	{r4, pc}

00001dd4 <_ZN17ConnectionBuilder18ConnectorGenerator8OneToOne8GenerateEmmmmmmRN6Common6Random10MarsKiss64ERA512_t>:
    1dd4:	e59d2000 	ldr	r2, [sp]
    1dd8:	e1530002 	cmp	r3, r2
    1ddc:	3a000008 	bcc	1e04 <_ZN17ConnectionBuilder18ConnectorGenerator8OneToOne8GenerateEmmmmmmRN6Common6Random10MarsKiss64ERA512_t+0x30>
    1de0:	e59d1004 	ldr	r1, [sp, #4]
    1de4:	e0821001 	add	r1, r2, r1
    1de8:	e1530001 	cmp	r3, r1
    1dec:	2a000004 	bcs	1e04 <_ZN17ConnectionBuilder18ConnectorGenerator8OneToOne8GenerateEmmmmmmRN6Common6Random10MarsKiss64ERA512_t+0x30>
    1df0:	e0433002 	sub	r3, r3, r2
    1df4:	e59d2010 	ldr	r2, [sp, #16]
    1df8:	e3a00001 	mov	r0, #1
    1dfc:	e1c230b0 	strh	r3, [r2]
    1e00:	e12fff1e 	bx	lr
    1e04:	e3a00000 	mov	r0, #0
    1e08:	e12fff1e 	bx	lr

00001e0c <_ZN17ConnectionBuilder18ConnectorGenerator16FixedProbability8GenerateEmmmmmmRN6Common6Random10MarsKiss64ERA512_t>:
    1e0c:	e92d4ff0 	push	{r4, r5, r6, r7, r8, r9, sl, fp, lr}
    1e10:	e24dd00c 	sub	sp, sp, #12
    1e14:	e59d1034 	ldr	r1, [sp, #52]	; 0x34
    1e18:	e58d3004 	str	r3, [sp, #4]
    1e1c:	e3510000 	cmp	r1, #0
    1e20:	0a000033 	beq	1ef4 <_ZN17ConnectionBuilder18ConnectorGenerator16FixedProbability8GenerateEmmmmmmRN6Common6Random10MarsKiss64ERA512_t+0xe8>
    1e24:	e59d203c 	ldr	r2, [sp, #60]	; 0x3c
    1e28:	e59d303c 	ldr	r3, [sp, #60]	; 0x3c
    1e2c:	e592e008 	ldr	lr, [r2, #8]
    1e30:	e592500c 	ldr	r5, [r2, #12]
    1e34:	e59d2030 	ldr	r2, [sp, #48]	; 0x30
    1e38:	e593c000 	ldr	ip, [r3]
    1e3c:	e0812002 	add	r2, r1, r2
    1e40:	e58d2000 	str	r2, [sp]
    1e44:	e5909004 	ldr	r9, [r0, #4]
    1e48:	e5933004 	ldr	r3, [r3, #4]
    1e4c:	e59f80ac 	ldr	r8, [pc, #172]	; 1f00 <_ZN17ConnectionBuilder18ConnectorGenerator16FixedProbability8GenerateEmmmmmmRN6Common6Random10MarsKiss64ERA512_t+0xf4>
    1e50:	e59f70ac 	ldr	r7, [pc, #172]	; 1f04 <_ZN17ConnectionBuilder18ConnectorGenerator16FixedProbability8GenerateEmmmmmmRN6Common6Random10MarsKiss64ERA512_t+0xf8>
    1e54:	e59f60ac 	ldr	r6, [pc, #172]	; 1f08 <_ZN17ConnectionBuilder18ConnectorGenerator16FixedProbability8GenerateEmmmmmmRN6Common6Random10MarsKiss64ERA512_t+0xfc>
    1e58:	e59d2030 	ldr	r2, [sp, #48]	; 0x30
    1e5c:	e3a01000 	mov	r1, #0
    1e60:	ea000003 	b	1e74 <_ZN17ConnectionBuilder18ConnectorGenerator16FixedProbability8GenerateEmmmmmmRN6Common6Random10MarsKiss64ERA512_t+0x68>
    1e64:	e59d4000 	ldr	r4, [sp]
    1e68:	e2822001 	add	r2, r2, #1
    1e6c:	e1540002 	cmp	r4, r2
    1e70:	0a00001a 	beq	1ee0 <_ZN17ConnectionBuilder18ConnectorGenerator16FixedProbability8GenerateEmmmmmmRN6Common6Random10MarsKiss64ERA512_t+0xd4>
    1e74:	e1a04005 	mov	r4, r5
    1e78:	e3a05000 	mov	r5, #0
    1e7c:	e0a54e96 	umlal	r4, r5, r6, lr
    1e80:	e02c7c98 	mla	ip, r8, ip, r7
    1e84:	e0233283 	eor	r3, r3, r3, lsl #5
    1e88:	e02333a3 	eor	r3, r3, r3, lsr #7
    1e8c:	e0233b03 	eor	r3, r3, r3, lsl #22
    1e90:	e08ce004 	add	lr, ip, r4
    1e94:	e08ee003 	add	lr, lr, r3
    1e98:	e15e0009 	cmp	lr, r9
    1e9c:	e59de030 	ldr	lr, [sp, #48]	; 0x30
    1ea0:	e1a0a081 	lsl	sl, r1, #1
    1ea4:	e042b00e 	sub	fp, r2, lr
    1ea8:	e1a0e004 	mov	lr, r4
    1eac:	8a000008 	bhi	1ed4 <_ZN17ConnectionBuilder18ConnectorGenerator16FixedProbability8GenerateEmmmmmmRN6Common6Random10MarsKiss64ERA512_t+0xc8>
    1eb0:	e5904008 	ldr	r4, [r0, #8]
    1eb4:	e3540000 	cmp	r4, #0
    1eb8:	1a000002 	bne	1ec8 <_ZN17ConnectionBuilder18ConnectorGenerator16FixedProbability8GenerateEmmmmmmRN6Common6Random10MarsKiss64ERA512_t+0xbc>
    1ebc:	e59d4004 	ldr	r4, [sp, #4]
    1ec0:	e1540002 	cmp	r4, r2
    1ec4:	0affffe6 	beq	1e64 <_ZN17ConnectionBuilder18ConnectorGenerator16FixedProbability8GenerateEmmmmmmRN6Common6Random10MarsKiss64ERA512_t+0x58>
    1ec8:	e59d4040 	ldr	r4, [sp, #64]	; 0x40
    1ecc:	e2811001 	add	r1, r1, #1
    1ed0:	e184b0ba 	strh	fp, [r4, sl]
    1ed4:	e59d4038 	ldr	r4, [sp, #56]	; 0x38
    1ed8:	e1510004 	cmp	r1, r4
    1edc:	1affffe0 	bne	1e64 <_ZN17ConnectionBuilder18ConnectorGenerator16FixedProbability8GenerateEmmmmmmRN6Common6Random10MarsKiss64ERA512_t+0x58>
    1ee0:	e59d203c 	ldr	r2, [sp, #60]	; 0x3c
    1ee4:	e582c000 	str	ip, [r2]
    1ee8:	e5823004 	str	r3, [r2, #4]
    1eec:	e582500c 	str	r5, [r2, #12]
    1ef0:	e582e008 	str	lr, [r2, #8]
    1ef4:	e1a00001 	mov	r0, r1
    1ef8:	e28dd00c 	add	sp, sp, #12
    1efc:	e8bd8ff0 	pop	{r4, r5, r6, r7, r8, r9, sl, fp, pc}
    1f00:	12bf507d 	.word	0x12bf507d
    1f04:	0012d687 	.word	0x0012d687
    1f08:	fffa2849 	.word	0xfffa2849

00001f0c <_ZN17ConnectionBuilder18ConnectorGenerator7Mapping8GenerateEmmmmmmRN6Common6Random10MarsKiss64ERA512_t>:
    1f0c:	e92d4ff0 	push	{r4, r5, r6, r7, r8, r9, sl, fp, lr}
    1f10:	e5d0600b 	ldrb	r6, [r0, #11]
    1f14:	e3a02001 	mov	r2, #1
    1f18:	e1a01612 	lsl	r1, r2, r6
    1f1c:	e5d07009 	ldrb	r7, [r0, #9]
    1f20:	e2411001 	sub	r1, r1, #1
    1f24:	e0011733 	and	r1, r1, r3, lsr r7
    1f28:	e5d0c008 	ldrb	ip, [r0, #8]
    1f2c:	e1a01801 	lsl	r1, r1, #16
    1f30:	e15c0821 	cmp	ip, r1, lsr #16
    1f34:	e24dd014 	sub	sp, sp, #20
    1f38:	0a000002 	beq	1f48 <_ZN17ConnectionBuilder18ConnectorGenerator7Mapping8GenerateEmmmmmmRN6Common6Random10MarsKiss64ERA512_t+0x3c>
    1f3c:	e3a00000 	mov	r0, #0
    1f40:	e28dd014 	add	sp, sp, #20
    1f44:	e8bd8ff0 	pop	{r4, r5, r6, r7, r8, r9, sl, fp, pc}
    1f48:	e5d0b00a 	ldrb	fp, [r0, #10]
    1f4c:	e0875006 	add	r5, r7, r6
    1f50:	e1a02b12 	lsl	r2, r2, fp
    1f54:	e2422001 	sub	r2, r2, #1
    1f58:	e0025533 	and	r5, r2, r3, lsr r5
    1f5c:	e1a09003 	mov	r9, r3
    1f60:	e59d3038 	ldr	r3, [sp, #56]	; 0x38
    1f64:	e1a04000 	mov	r4, r0
    1f68:	e1a0a803 	lsl	sl, r3, #16
    1f6c:	e1a0a82a 	lsr	sl, sl, #16
    1f70:	e28d200e 	add	r2, sp, #14
    1f74:	e1d410b6 	ldrh	r1, [r4, #6]
    1f78:	e1a0000a 	mov	r0, sl
    1f7c:	eb000616 	bl	37dc <_ZN17ConnectionBuilder11KernelMaths5uidivEttRt>
    1f80:	e59d303c 	ldr	r3, [sp, #60]	; 0x3c
    1f84:	e1a05805 	lsl	r5, r5, #16
    1f88:	e1a05825 	lsr	r5, r5, #16
    1f8c:	e28d200e 	add	r2, sp, #14
    1f90:	e1d410b6 	ldrh	r1, [r4, #6]
    1f94:	e1a08000 	mov	r8, r0
    1f98:	e08a0003 	add	r0, sl, r3
    1f9c:	e1a00800 	lsl	r0, r0, #16
    1fa0:	e1a00820 	lsr	r0, r0, #16
    1fa4:	eb00060c 	bl	37dc <_ZN17ConnectionBuilder11KernelMaths5uidivEttRt>
    1fa8:	e1550008 	cmp	r5, r8
    1fac:	baffffe2 	blt	1f3c <_ZN17ConnectionBuilder18ConnectorGenerator7Mapping8GenerateEmmmmmmRN6Common6Random10MarsKiss64ERA512_t+0x30>
    1fb0:	e1550000 	cmp	r5, r0
    1fb4:	caffffe0 	bgt	1f3c <_ZN17ConnectionBuilder18ConnectorGenerator7Mapping8GenerateEmmmmmmRN6Common6Random10MarsKiss64ERA512_t+0x30>
    1fb8:	e59d3038 	ldr	r3, [sp, #56]	; 0x38
    1fbc:	e59d2038 	ldr	r2, [sp, #56]	; 0x38
    1fc0:	e59d103c 	ldr	r1, [sp, #60]	; 0x3c
    1fc4:	e1a03803 	lsl	r3, r3, #16
    1fc8:	e1a03823 	lsr	r3, r3, #16
    1fcc:	e0828001 	add	r8, r2, r1
    1fd0:	e1530008 	cmp	r3, r8
    1fd4:	2affffd8 	bcs	1f3c <_ZN17ConnectionBuilder18ConnectorGenerator7Mapping8GenerateEmmmmmmRN6Common6Random10MarsKiss64ERA512_t+0x30>
    1fd8:	e086600b 	add	r6, r6, fp
    1fdc:	e0867007 	add	r7, r6, r7
    1fe0:	e1a07739 	lsr	r7, r9, r7
    1fe4:	e1a0b807 	lsl	fp, r7, #16
    1fe8:	e1a0b82b 	lsr	fp, fp, #16
    1fec:	e1a0600a 	mov	r6, sl
    1ff0:	ea000002 	b	2000 <P2P_TABLE_SIZE>
    1ff4:	e1a06823 	lsr	r6, r3, #16
    1ff8:	e1560008 	cmp	r6, r8
    1ffc:	2affffce 	bcs	1f3c <_ZN17ConnectionBuilder18ConnectorGenerator7Mapping8GenerateEmmmmmmRN6Common6Random10MarsKiss64ERA512_t+0x30>
    2000:	e28d200e 	add	r2, sp, #14
    2004:	e1d410b6 	ldrh	r1, [r4, #6]
    2008:	e1a00006 	mov	r0, r6
    200c:	eb0005f2 	bl	37dc <_ZN17ConnectionBuilder11KernelMaths5uidivEttRt>
    2010:	e1dd20be 	ldrh	r2, [sp, #14]
    2014:	e2863001 	add	r3, r6, #1
    2018:	e1a03803 	lsl	r3, r3, #16
    201c:	e152000b 	cmp	r2, fp
    2020:	01550000 	cmpeq	r5, r0
    2024:	1afffff2 	bne	1ff4 <_ZN17ConnectionBuilder18ConnectorGenerator7Mapping8GenerateEmmmmmmRN6Common6Random10MarsKiss64ERA512_t+0xe8>
    2028:	e1a07807 	lsl	r7, r7, #16
    202c:	e1a07827 	lsr	r7, r7, #16
    2030:	e58d6004 	str	r6, [sp, #4]
    2034:	e1a03005 	mov	r3, r5
    2038:	e3a00002 	mov	r0, #2
    203c:	e58d7000 	str	r7, [sp]
    2040:	e1a02009 	mov	r2, r9
    2044:	e59f1014 	ldr	r1, [pc, #20]	; 2060 <P2P_TABLE_SIZE+0x60>
    2048:	fa000991 	blx	4694 <io_printf>
    204c:	e59d3048 	ldr	r3, [sp, #72]	; 0x48
    2050:	e046600a 	sub	r6, r6, sl
    2054:	e1c360b0 	strh	r6, [r3]
    2058:	e3a00001 	mov	r0, #1
    205c:	eaffffb7 	b	1f40 <_ZN17ConnectionBuilder18ConnectorGenerator7Mapping8GenerateEmmmmmmRN6Common6Random10MarsKiss64ERA512_t+0x34>
    2060:	00005b2c 	.word	0x00005b2c

00002064 <_ZN17ConnectionBuilder18ConnectorGenerator6Kernel8GenerateEmmmmmmRN6Common6Random10MarsKiss64ERA512_t>:
    2064:	e92d4ff0 	push	{r4, r5, r6, r7, r8, r9, sl, fp, lr}
    2068:	e24dd01c 	sub	sp, sp, #28
    206c:	e1a03803 	lsl	r3, r3, #16
    2070:	e59d4040 	ldr	r4, [sp, #64]	; 0x40
    2074:	e1a05000 	mov	r5, r0
    2078:	e59d7044 	ldr	r7, [sp, #68]	; 0x44
    207c:	e1a00823 	lsr	r0, r3, #16
    2080:	e1d510ba 	ldrh	r1, [r5, #10]
    2084:	e28d2010 	add	r2, sp, #16
    2088:	eb0005d3 	bl	37dc <_ZN17ConnectionBuilder11KernelMaths5uidivEttRt>
    208c:	e1a03804 	lsl	r3, r4, #16
    2090:	e0847007 	add	r7, r4, r7
    2094:	e1a03823 	lsr	r3, r3, #16
    2098:	e1570003 	cmp	r7, r3
    209c:	9a00006e 	bls	225c <_ZN17ConnectionBuilder18ConnectorGenerator6Kernel8GenerateEmmmmmmRN6Common6Random10MarsKiss64ERA512_t+0x1f8>
    20a0:	e3a06000 	mov	r6, #0
    20a4:	e1a09000 	mov	r9, r0
    20a8:	e1a04003 	mov	r4, r3
    20ac:	e1a08006 	mov	r8, r6
    20b0:	e1a0a006 	mov	sl, r6
    20b4:	e28d2012 	add	r2, sp, #18
    20b8:	e1d510be 	ldrh	r1, [r5, #14]
    20bc:	e1a00004 	mov	r0, r4
    20c0:	eb0005c5 	bl	37dc <_ZN17ConnectionBuilder11KernelMaths5uidivEttRt>
    20c4:	e1d531be 	ldrh	r3, [r5, #30]
    20c8:	e1d521b4 	ldrh	r2, [r5, #20]
    20cc:	e1002083 	smlabb	r0, r3, r0, r2
    20d0:	e1a00800 	lsl	r0, r0, #16
    20d4:	e1b03840 	asrs	r3, r0, #16
    20d8:	e1a00820 	lsr	r0, r0, #16
    20dc:	4a00000f 	bmi	2120 <_ZN17ConnectionBuilder18ConnectorGenerator6Kernel8GenerateEmmmmmmRN6Common6Random10MarsKiss64ERA512_t+0xbc>
    20e0:	e1d521b6 	ldrh	r2, [r5, #22]
    20e4:	e1d511bc 	ldrh	r1, [r5, #28]
    20e8:	e1dde1b2 	ldrh	lr, [sp, #18]
    20ec:	e1d5c0b4 	ldrh	ip, [r5, #4]
    20f0:	e1012e81 	smlabb	r1, r1, lr, r2
    20f4:	e153000c 	cmp	r3, ip
    20f8:	e1a01801 	lsl	r1, r1, #16
    20fc:	e1a02841 	asr	r2, r1, #16
    2100:	b3a03000 	movlt	r3, #0
    2104:	a3a03001 	movge	r3, #1
    2108:	e1933fa2 	orrs	r3, r3, r2, lsr #31
    210c:	e1a01821 	lsr	r1, r1, #16
    2110:	1a000002 	bne	2120 <_ZN17ConnectionBuilder18ConnectorGenerator6Kernel8GenerateEmmmmmmRN6Common6Random10MarsKiss64ERA512_t+0xbc>
    2114:	e1d530b6 	ldrh	r3, [r5, #6]
    2118:	e1520003 	cmp	r2, r3
    211c:	ba000008 	blt	2144 <_ZN17ConnectionBuilder18ConnectorGenerator6Kernel8GenerateEmmmmmmRN6Common6Random10MarsKiss64ERA512_t+0xe0>
    2120:	e2844001 	add	r4, r4, #1
    2124:	e1a04804 	lsl	r4, r4, #16
    2128:	e1a04824 	lsr	r4, r4, #16
    212c:	e1570004 	cmp	r7, r4
    2130:	e2866001 	add	r6, r6, #1
    2134:	8affffde 	bhi	20b4 <_ZN17ConnectionBuilder18ConnectorGenerator6Kernel8GenerateEmmmmmmRN6Common6Random10MarsKiss64ERA512_t+0x50>
    2138:	e1a00008 	mov	r0, r8
    213c:	e28dd01c 	add	sp, sp, #28
    2140:	e8bd8ff0 	pop	{r4, r5, r6, r7, r8, r9, sl, fp, pc}
    2144:	e1d5e1b8 	ldrh	lr, [r5, #24]
    2148:	e1d5c1ba 	ldrh	ip, [r5, #26]
    214c:	e28db016 	add	fp, sp, #22
    2150:	e1d531b2 	ldrh	r3, [r5, #18]
    2154:	e1d521b0 	ldrh	r2, [r5, #16]
    2158:	e58db00c 	str	fp, [sp, #12]
    215c:	e28db014 	add	fp, sp, #20
    2160:	e58db008 	str	fp, [sp, #8]
    2164:	e88d5000 	stm	sp, {ip, lr}
    2168:	eb0005bc 	bl	3860 <_ZN17ConnectionBuilder11KernelMaths17pre_in_post_worldEttttttRsS1_>
    216c:	e1d532b2 	ldrh	r3, [r5, #34]	; 0x22
    2170:	e1dd11b4 	ldrh	r1, [sp, #20]
    2174:	e1a030a3 	lsr	r3, r3, #1
    2178:	e0412003 	sub	r2, r1, r3
    217c:	e1a02802 	lsl	r2, r2, #16
    2180:	e1a02842 	asr	r2, r2, #16
    2184:	e1c22fc2 	bic	r2, r2, r2, asr #31
    2188:	e1520009 	cmp	r2, r9
    218c:	caffffe3 	bgt	2120 <_ZN17ConnectionBuilder18ConnectorGenerator6Kernel8GenerateEmmmmmmRN6Common6Random10MarsKiss64ERA512_t+0xbc>
    2190:	e2811001 	add	r1, r1, #1
    2194:	e0833001 	add	r3, r3, r1
    2198:	e1d520f8 	ldrsh	r2, [r5, #8]
    219c:	e1a03803 	lsl	r3, r3, #16
    21a0:	e1a03843 	asr	r3, r3, #16
    21a4:	e1530002 	cmp	r3, r2
    21a8:	a1a03002 	movge	r3, r2
    21ac:	e1590003 	cmp	r9, r3
    21b0:	aaffffda 	bge	2120 <_ZN17ConnectionBuilder18ConnectorGenerator6Kernel8GenerateEmmmmmmRN6Common6Random10MarsKiss64ERA512_t+0xbc>
    21b4:	e1d532b0 	ldrh	r3, [r5, #32]
    21b8:	e1dd01b6 	ldrh	r0, [sp, #22]
    21bc:	e1a030a3 	lsr	r3, r3, #1
    21c0:	e0402003 	sub	r2, r0, r3
    21c4:	e1a02802 	lsl	r2, r2, #16
    21c8:	e1a02842 	asr	r2, r2, #16
    21cc:	e1c22fc2 	bic	r2, r2, r2, asr #31
    21d0:	e1dd11b0 	ldrh	r1, [sp, #16]
    21d4:	e1520001 	cmp	r2, r1
    21d8:	caffffd0 	bgt	2120 <_ZN17ConnectionBuilder18ConnectorGenerator6Kernel8GenerateEmmmmmmRN6Common6Random10MarsKiss64ERA512_t+0xbc>
    21dc:	e2800001 	add	r0, r0, #1
    21e0:	e0833000 	add	r3, r3, r0
    21e4:	e1d520fa 	ldrsh	r2, [r5, #10]
    21e8:	e1a03803 	lsl	r3, r3, #16
    21ec:	e1a03843 	asr	r3, r3, #16
    21f0:	e1530002 	cmp	r3, r2
    21f4:	a1a03002 	movge	r3, r2
    21f8:	e1510003 	cmp	r1, r3
    21fc:	aaffffc7 	bge	2120 <_ZN17ConnectionBuilder18ConnectorGenerator6Kernel8GenerateEmmmmmmRN6Common6Random10MarsKiss64ERA512_t+0xbc>
    2200:	e3580000 	cmp	r8, #0
    2204:	0a00000f 	beq	2248 <_ZN17ConnectionBuilder18ConnectorGenerator6Kernel8GenerateEmmmmmmRN6Common6Random10MarsKiss64ERA512_t+0x1e4>
    2208:	e59d3050 	ldr	r3, [sp, #80]	; 0x50
    220c:	e1d330b0 	ldrh	r3, [r3]
    2210:	e1530004 	cmp	r3, r4
    2214:	0affffc1 	beq	2120 <_ZN17ConnectionBuilder18ConnectorGenerator6Kernel8GenerateEmmmmmmRN6Common6Random10MarsKiss64ERA512_t+0xbc>
    2218:	e1a0300a 	mov	r3, sl
    221c:	ea000003 	b	2230 <_ZN17ConnectionBuilder18ConnectorGenerator6Kernel8GenerateEmmmmmmRN6Common6Random10MarsKiss64ERA512_t+0x1cc>
    2220:	e59d1050 	ldr	r1, [sp, #80]	; 0x50
    2224:	e19120b2 	ldrh	r2, [r1, r2]
    2228:	e1520004 	cmp	r2, r4
    222c:	0affffbb 	beq	2120 <_ZN17ConnectionBuilder18ConnectorGenerator6Kernel8GenerateEmmmmmmRN6Common6Random10MarsKiss64ERA512_t+0xbc>
    2230:	e2833001 	add	r3, r3, #1
    2234:	e1a03803 	lsl	r3, r3, #16
    2238:	e1a03823 	lsr	r3, r3, #16
    223c:	e1530008 	cmp	r3, r8
    2240:	e1a02083 	lsl	r2, r3, #1
    2244:	3afffff5 	bcc	2220 <_ZN17ConnectionBuilder18ConnectorGenerator6Kernel8GenerateEmmmmmmRN6Common6Random10MarsKiss64ERA512_t+0x1bc>
    2248:	e59d2050 	ldr	r2, [sp, #80]	; 0x50
    224c:	e1a03088 	lsl	r3, r8, #1
    2250:	e18260b3 	strh	r6, [r2, r3]
    2254:	e2888001 	add	r8, r8, #1
    2258:	eaffffb0 	b	2120 <_ZN17ConnectionBuilder18ConnectorGenerator6Kernel8GenerateEmmmmmmRN6Common6Random10MarsKiss64ERA512_t+0xbc>
    225c:	e3a08000 	mov	r8, #0
    2260:	eaffffb4 	b	2138 <_ZN17ConnectionBuilder18ConnectorGenerator6Kernel8GenerateEmmmmmmRN6Common6Random10MarsKiss64ERA512_t+0xd4>

00002264 <_ZN17ConnectionBuilder18ConnectorGenerator8AllToAllC1ERPm>:
    2264:	e5913000 	ldr	r3, [r1]
    2268:	e92d4010 	push	{r4, lr}
    226c:	e1a04000 	mov	r4, r0
    2270:	e5930000 	ldr	r0, [r3]
    2274:	e59f2024 	ldr	r2, [pc, #36]	; 22a0 <_ZN17ConnectionBuilder18ConnectorGenerator8AllToAllC1ERPm+0x3c>
    2278:	e2833004 	add	r3, r3, #4
    227c:	e5842000 	str	r2, [r4]
    2280:	e5813000 	str	r3, [r1]
    2284:	e1a02000 	mov	r2, r0
    2288:	e5840004 	str	r0, [r4, #4]
    228c:	e59f1010 	ldr	r1, [pc, #16]	; 22a4 <_ZN17ConnectionBuilder18ConnectorGenerator8AllToAllC1ERPm+0x40>
    2290:	e3a00002 	mov	r0, #2
    2294:	fa0008fe 	blx	4694 <io_printf>
    2298:	e1a00004 	mov	r0, r4
    229c:	e8bd8010 	pop	{r4, pc}
    22a0:	00005af8 	.word	0x00005af8
    22a4:	00005b4c 	.word	0x00005b4c

000022a8 <_ZN17ConnectionBuilder18ConnectorGenerator7MappingC1ERPm>:
    22a8:	e5913000 	ldr	r3, [r1]
    22ac:	e1a0c001 	mov	ip, r1
    22b0:	e8930006 	ldm	r3, {r1, r2}
    22b4:	e92d4030 	push	{r4, r5, lr}
    22b8:	e1a04000 	mov	r4, r0
    22bc:	e59f0078 	ldr	r0, [pc, #120]	; 233c <_ZN17ConnectionBuilder18ConnectorGenerator7MappingC1ERPm+0x94>
    22c0:	e1a0e422 	lsr	lr, r2, #8
    22c4:	e5840000 	str	r0, [r4]
    22c8:	e1c410b4 	strh	r1, [r4, #4]
    22cc:	e1a00822 	lsr	r0, r2, #16
    22d0:	e1a05821 	lsr	r5, r1, #16
    22d4:	e2833008 	add	r3, r3, #8
    22d8:	e1a01c22 	lsr	r1, r2, #24
    22dc:	e24dd014 	sub	sp, sp, #20
    22e0:	e5c42008 	strb	r2, [r4, #8]
    22e4:	e5c4e009 	strb	lr, [r4, #9]
    22e8:	e5c4000b 	strb	r0, [r4, #11]
    22ec:	e5c4100a 	strb	r1, [r4, #10]
    22f0:	e1c450b6 	strh	r5, [r4, #6]
    22f4:	e59f1044 	ldr	r1, [pc, #68]	; 2340 <_ZN17ConnectionBuilder18ConnectorGenerator7MappingC1ERPm+0x98>
    22f8:	e58c3000 	str	r3, [ip]
    22fc:	e3a00002 	mov	r0, #2
    2300:	fa0008e3 	blx	4694 <io_printf>
    2304:	e5d4000a 	ldrb	r0, [r4, #10]
    2308:	e5d4e009 	ldrb	lr, [r4, #9]
    230c:	e5d4c00b 	ldrb	ip, [r4, #11]
    2310:	e5d41008 	ldrb	r1, [r4, #8]
    2314:	e1d430b4 	ldrh	r3, [r4, #4]
    2318:	e1d420b6 	ldrh	r2, [r4, #6]
    231c:	e98d5001 	stmib	sp, {r0, ip, lr}
    2320:	e58d1000 	str	r1, [sp]
    2324:	e3a00002 	mov	r0, #2
    2328:	e59f1014 	ldr	r1, [pc, #20]	; 2344 <_ZN17ConnectionBuilder18ConnectorGenerator7MappingC1ERPm+0x9c>
    232c:	fa0008d8 	blx	4694 <io_printf>
    2330:	e1a00004 	mov	r0, r4
    2334:	e28dd014 	add	sp, sp, #20
    2338:	e8bd8030 	pop	{r4, r5, pc}
    233c:	00005b04 	.word	0x00005b04
    2340:	00005b94 	.word	0x00005b94
    2344:	00005bbc 	.word	0x00005bbc

00002348 <_ZN17ConnectionBuilder18ConnectorGenerator6KernelC1ERPm>:
    2348:	e5913000 	ldr	r3, [r1]
    234c:	e92d43f0 	push	{r4, r5, r6, r7, r8, r9, lr}
    2350:	e1a04000 	mov	r4, r0
    2354:	e2830014 	add	r0, r3, #20
    2358:	e1a0c001 	mov	ip, r1
    235c:	e8900007 	ldm	r0, {r0, r1, r2}
    2360:	e5939000 	ldr	r9, [r3]
    2364:	e59f80ac 	ldr	r8, [pc, #172]	; 2418 <_ZN17ConnectionBuilder18ConnectorGenerator6KernelC1ERPm+0xd0>
    2368:	e593e010 	ldr	lr, [r3, #16]
    236c:	e5937004 	ldr	r7, [r3, #4]
    2370:	e5936008 	ldr	r6, [r3, #8]
    2374:	e593500c 	ldr	r5, [r3, #12]
    2378:	e1a02862 	ror	r2, r2, #16
    237c:	e2833020 	add	r3, r3, #32
    2380:	e1a00860 	ror	r0, r0, #16
    2384:	e1a01861 	ror	r1, r1, #16
    2388:	e24dd014 	sub	sp, sp, #20
    238c:	e584e014 	str	lr, [r4, #20]
    2390:	e5840018 	str	r0, [r4, #24]
    2394:	e584101c 	str	r1, [r4, #28]
    2398:	e5842020 	str	r2, [r4, #32]
    239c:	e8840300 	stm	r4, {r8, r9}
    23a0:	e5847008 	str	r7, [r4, #8]
    23a4:	e584600c 	str	r6, [r4, #12]
    23a8:	e5845010 	str	r5, [r4, #16]
    23ac:	e59f1068 	ldr	r1, [pc, #104]	; 241c <_ZN17ConnectionBuilder18ConnectorGenerator6KernelC1ERPm+0xd4>
    23b0:	e58c3000 	str	r3, [ip]
    23b4:	e3a00002 	mov	r0, #2
    23b8:	fa0008b5 	blx	4694 <io_printf>
    23bc:	e1d400bc 	ldrh	r0, [r4, #12]
    23c0:	e1d410be 	ldrh	r1, [r4, #14]
    23c4:	e1d430b8 	ldrh	r3, [r4, #8]
    23c8:	e1d420ba 	ldrh	r2, [r4, #10]
    23cc:	e58d0004 	str	r0, [sp, #4]
    23d0:	e58d1000 	str	r1, [sp]
    23d4:	e3a00002 	mov	r0, #2
    23d8:	e59f1040 	ldr	r1, [pc, #64]	; 2420 <_ZN17ConnectionBuilder18ConnectorGenerator6KernelC1ERPm+0xd8>
    23dc:	fa0008ac 	blx	4694 <io_printf>
    23e0:	e1d401b4 	ldrh	r0, [r4, #20]
    23e4:	e1d4e1be 	ldrh	lr, [r4, #30]
    23e8:	e1d4c1bc 	ldrh	ip, [r4, #28]
    23ec:	e1d411b6 	ldrh	r1, [r4, #22]
    23f0:	e1d432b2 	ldrh	r3, [r4, #34]	; 0x22
    23f4:	e1d422b0 	ldrh	r2, [r4, #32]
    23f8:	e98d5001 	stmib	sp, {r0, ip, lr}
    23fc:	e58d1000 	str	r1, [sp]
    2400:	e3a00002 	mov	r0, #2
    2404:	e59f1018 	ldr	r1, [pc, #24]	; 2424 <_ZN17ConnectionBuilder18ConnectorGenerator6KernelC1ERPm+0xdc>
    2408:	fa0008a1 	blx	4694 <io_printf>
    240c:	e1a00004 	mov	r0, r4
    2410:	e28dd014 	add	sp, sp, #20
    2414:	e8bd83f0 	pop	{r4, r5, r6, r7, r8, r9, pc}
    2418:	00005b10 	.word	0x00005b10
    241c:	00005c04 	.word	0x00005c04
    2420:	00005c34 	.word	0x00005c34
    2424:	00005c58 	.word	0x00005c58

00002428 <_ZN17ConnectionBuilder18ConnectorGenerator8OneToOneC1ERPm>:
    2428:	e59f301c 	ldr	r3, [pc, #28]	; 244c <_ZN17ConnectionBuilder18ConnectorGenerator8OneToOneC1ERPm+0x24>
    242c:	e92d4010 	push	{r4, lr}
    2430:	e59f1018 	ldr	r1, [pc, #24]	; 2450 <_ZN17ConnectionBuilder18ConnectorGenerator8OneToOneC1ERPm+0x28>
    2434:	e1a04000 	mov	r4, r0
    2438:	e5803000 	str	r3, [r0]
    243c:	e3a00002 	mov	r0, #2
    2440:	fa000893 	blx	4694 <io_printf>
    2444:	e1a00004 	mov	r0, r4
    2448:	e8bd8010 	pop	{r4, pc}
    244c:	00005b1c 	.word	0x00005b1c
    2450:	00005c8c 	.word	0x00005c8c

00002454 <_ZN17ConnectionBuilder18ConnectorGenerator16FixedProbabilityC1ERPm>:
    2454:	e5912000 	ldr	r2, [r1]
    2458:	e92d4010 	push	{r4, lr}
    245c:	e1a03002 	mov	r3, r2
    2460:	e1a04000 	mov	r4, r0
    2464:	e4930008 	ldr	r0, [r3], #8
    2468:	e5840008 	str	r0, [r4, #8]
    246c:	e5920004 	ldr	r0, [r2, #4]
    2470:	e59f2020 	ldr	r2, [pc, #32]	; 2498 <_ZN17ConnectionBuilder18ConnectorGenerator16FixedProbabilityC1ERPm+0x44>
    2474:	e5842000 	str	r2, [r4]
    2478:	e5813000 	str	r3, [r1]
    247c:	e1a02000 	mov	r2, r0
    2480:	e5840004 	str	r0, [r4, #4]
    2484:	e59f1010 	ldr	r1, [pc, #16]	; 249c <_ZN17ConnectionBuilder18ConnectorGenerator16FixedProbabilityC1ERPm+0x48>
    2488:	e3a00002 	mov	r0, #2
    248c:	fa000880 	blx	4694 <io_printf>
    2490:	e1a00004 	mov	r0, r4
    2494:	e8bd8010 	pop	{r4, pc}
    2498:	00005b28 	.word	0x00005b28
    249c:	00005cb8 	.word	0x00005cb8

000024a0 <_ZNK17ConnectionBuilder15MatrixGenerator6Static14GetMaxRowWordsEj>:
    24a0:	e1a00001 	mov	r0, r1
    24a4:	e12fff1e 	bx	lr

000024a8 <_ZNK17ConnectionBuilder15MatrixGenerator7Plastic14GetMaxRowWordsEj>:
    24a8:	e5902014 	ldr	r2, [r0, #20]
    24ac:	e2013001 	and	r3, r1, #1
    24b0:	e2822002 	add	r2, r2, #2
    24b4:	e0020291 	mul	r2, r1, r2
    24b8:	e5900004 	ldr	r0, [r0, #4]
    24bc:	e08310a1 	add	r1, r3, r1, lsr #1
    24c0:	e0811000 	add	r1, r1, r0
    24c4:	e2120003 	ands	r0, r2, #3
    24c8:	e0811122 	add	r1, r1, r2, lsr #2
    24cc:	13a00001 	movne	r0, #1
    24d0:	e0810000 	add	r0, r1, r0
    24d4:	e12fff1e 	bx	lr

000024d8 <_ZNK17ConnectionBuilder15MatrixGenerator7Plastic8WriteRowEPmmmmmlmmmmmRA512_KtRA512_KlS8_>:
    24d8:	e92d4ff0 	push	{r4, r5, r6, r7, r8, r9, sl, fp, lr}
    24dc:	e24dd044 	sub	sp, sp, #68	; 0x44
    24e0:	e59dc074 	ldr	ip, [sp, #116]	; 0x74
    24e4:	e3a04001 	mov	r4, #1
    24e8:	e28ce008 	add	lr, ip, #8
    24ec:	e58de01c 	str	lr, [sp, #28]
    24f0:	e1a0ee14 	lsl	lr, r4, lr
    24f4:	e1a08000 	mov	r8, r0
    24f8:	e58d0010 	str	r0, [sp, #16]
    24fc:	e24e0001 	sub	r0, lr, #1
    2500:	e1a0cc14 	lsl	ip, r4, ip
    2504:	e59d707c 	ldr	r7, [sp, #124]	; 0x7c
    2508:	e1a09003 	mov	r9, r3
    250c:	e58d3038 	str	r3, [sp, #56]	; 0x38
    2510:	e1a03800 	lsl	r3, r0, #16
    2514:	e1a00004 	mov	r0, r4
    2518:	e59d406c 	ldr	r4, [sp, #108]	; 0x6c
    251c:	e59de068 	ldr	lr, [sp, #104]	; 0x68
    2520:	e1570004 	cmp	r7, r4
    2524:	e59d4078 	ldr	r4, [sp, #120]	; 0x78
    2528:	e58d1030 	str	r1, [sp, #48]	; 0x30
    252c:	e1a06014 	lsl	r6, r4, r0
    2530:	e1a01823 	lsr	r1, r3, #16
    2534:	e59d306c 	ldr	r3, [sp, #108]	; 0x6c
    2538:	31a03007 	movcc	r3, r7
    253c:	e59d5080 	ldr	r5, [sp, #128]	; 0x80
    2540:	e58d3020 	str	r3, [sp, #32]
    2544:	e2463002 	sub	r3, r6, #2
    2548:	e5984004 	ldr	r4, [r8, #4]
    254c:	e58d303c 	str	r3, [sp, #60]	; 0x3c
    2550:	e1a0310e 	lsl	r3, lr, #2
    2554:	e58d400c 	str	r4, [sp, #12]
    2558:	e58d2034 	str	r2, [sp, #52]	; 0x34
    255c:	e3a04000 	mov	r4, #0
    2560:	e24c2001 	sub	r2, ip, #1
    2564:	e58d302c 	str	r3, [sp, #44]	; 0x2c
    2568:	e2853002 	add	r3, r5, #2
    256c:	e58d4004 	str	r4, [sp, #4]
    2570:	e58d2024 	str	r2, [sp, #36]	; 0x24
    2574:	e58d9018 	str	r9, [sp, #24]
    2578:	e58d3028 	str	r3, [sp, #40]	; 0x28
    257c:	e1a0b004 	mov	fp, r4
    2580:	e1a0c000 	mov	ip, r0
    2584:	ea000048 	b	26ac <_ZNK17ConnectionBuilder15MatrixGenerator7Plastic8WriteRowEPmmmmmlmmmmmRA512_KtRA512_KlS8_+0x1d4>
    2588:	e59d0018 	ldr	r0, [sp, #24]
    258c:	e203e00f 	and	lr, r3, #15
    2590:	e59d302c 	ldr	r3, [sp, #44]	; 0x2c
    2594:	e59d5020 	ldr	r5, [sp, #32]
    2598:	e0000093 	mul	r0, r3, r0
    259c:	e59d400c 	ldr	r4, [sp, #12]
    25a0:	e59d9030 	ldr	r9, [sp, #48]	; 0x30
    25a4:	e0853004 	add	r3, r5, r4
    25a8:	e59d401c 	ldr	r4, [sp, #28]
    25ac:	e7893000 	str	r3, [r9, r0]
    25b0:	e20220ff 	and	r2, r2, #255	; 0xff
    25b4:	e59d3010 	ldr	r3, [sp, #16]
    25b8:	e182241e 	orr	r2, r2, lr, lsl r4
    25bc:	e59d4024 	ldr	r4, [sp, #36]	; 0x24
    25c0:	e59de084 	ldr	lr, [sp, #132]	; 0x84
    25c4:	e5933004 	ldr	r3, [r3, #4]
    25c8:	e59da028 	ldr	sl, [sp, #40]	; 0x28
    25cc:	e00ee004 	and	lr, lr, r4
    25d0:	e182240e 	orr	r2, r2, lr, lsl #8
    25d4:	e1a04003 	mov	r4, r3
    25d8:	e58d300c 	str	r3, [sp, #12]
    25dc:	e083300a 	add	r3, r3, sl
    25e0:	e0890000 	add	r0, r9, r0
    25e4:	e0833005 	add	r3, r3, r5
    25e8:	e35c0000 	cmp	ip, #0
    25ec:	e1a02802 	lsl	r2, r2, #16
    25f0:	e284c001 	add	ip, r4, #1
    25f4:	e1a02822 	lsr	r2, r2, #16
    25f8:	e1a03103 	lsl	r3, r3, #2
    25fc:	e080c10c 	add	ip, r0, ip, lsl #2
    2600:	e58d2008 	str	r2, [sp, #8]
    2604:	e1a0e005 	mov	lr, r5
    2608:	e0802003 	add	r2, r0, r3
    260c:	e58dc014 	str	ip, [sp, #20]
    2610:	0a000007 	beq	2634 <_ZNK17ConnectionBuilder15MatrixGenerator7Plastic8WriteRowEPmmmmmlmmmmmRA512_KtRA512_KlS8_+0x15c>
    2614:	e190c0b3 	ldrh	ip, [r0, r3]
    2618:	e59de06c 	ldr	lr, [sp, #108]	; 0x6c
    261c:	e08cc00e 	add	ip, ip, lr
    2620:	e1a0c80c 	lsl	ip, ip, #16
    2624:	e1a0c82c 	lsr	ip, ip, #16
    2628:	e157000c 	cmp	r7, ip
    262c:	2180c0b3 	strhcs	ip, [r0, r3]
    2630:	318070b3 	strhcc	r7, [r0, r3]
    2634:	e59d306c 	ldr	r3, [sp, #108]	; 0x6c
    2638:	e3530000 	cmp	r3, #0
    263c:	0a00007d 	beq	2838 <_ZNK17ConnectionBuilder15MatrixGenerator7Plastic8WriteRowEPmmmmmlmmmmmRA512_KtRA512_KlS8_+0x360>
    2640:	e1d230b4 	ldrh	r3, [r2, #4]
    2644:	e59d0004 	ldr	r0, [sp, #4]
    2648:	e1a08808 	lsl	r8, r8, #16
    264c:	e3530000 	cmp	r3, #0
    2650:	13800001 	orrne	r0, r0, #1
    2654:	e31000ff 	tst	r0, #255	; 0xff
    2658:	e1a08828 	lsr	r8, r8, #16
    265c:	1a00003b 	bne	2750 <_ZNK17ConnectionBuilder15MatrixGenerator7Plastic8WriteRowEPmmmmmlmmmmmRA512_KtRA512_KlS8_+0x278>
    2660:	e1dd30b8 	ldrh	r3, [sp, #8]
    2664:	e1c230b4 	strh	r3, [r2, #4]
    2668:	e59d3014 	ldr	r3, [sp, #20]
    266c:	e59d203c 	ldr	r2, [sp, #60]	; 0x3c
    2670:	e18380b2 	strh	r8, [r3, r2]
    2674:	e59d2008 	ldr	r2, [sp, #8]
    2678:	e59d3004 	ldr	r3, [sp, #4]
    267c:	e3520000 	cmp	r2, #0
    2680:	03a03001 	moveq	r3, #1
    2684:	e28bb001 	add	fp, fp, #1
    2688:	e1a0b80b 	lsl	fp, fp, #16
    268c:	e58d3004 	str	r3, [sp, #4]
    2690:	e59d306c 	ldr	r3, [sp, #108]	; 0x6c
    2694:	e1a0b82b 	lsr	fp, fp, #16
    2698:	e157000b 	cmp	r7, fp
    269c:	1153000b 	cmpne	r3, fp
    26a0:	93a0c001 	movls	ip, #1
    26a4:	83a0c000 	movhi	ip, #0
    26a8:	9a000062 	bls	2838 <_ZNK17ConnectionBuilder15MatrixGenerator7Plastic8WriteRowEPmmmmmlmmmmmRA512_KtRA512_KlS8_+0x360>
    26ac:	e59d3090 	ldr	r3, [sp, #144]	; 0x90
    26b0:	e59d2010 	ldr	r2, [sp, #16]
    26b4:	e793310b 	ldr	r3, [r3, fp, lsl #2]
    26b8:	e5922010 	ldr	r2, [r2, #16]
    26bc:	e59d0088 	ldr	r0, [sp, #136]	; 0x88
    26c0:	e1a08803 	lsl	r8, r3, #16
    26c4:	e3520000 	cmp	r2, #0
    26c8:	e1a0208b 	lsl	r2, fp, #1
    26cc:	e1a08848 	asr	r8, r8, #16
    26d0:	e19020b2 	ldrh	r2, [r0, r2]
    26d4:	0a000007 	beq	26f8 <_ZNK17ConnectionBuilder15MatrixGenerator7Plastic8WriteRowEPmmmmmlmmmmmRA512_KtRA512_KlS8_+0x220>
    26d8:	e59d0084 	ldr	r0, [sp, #132]	; 0x84
    26dc:	e3500001 	cmp	r0, #1
    26e0:	83a00000 	movhi	r0, #0
    26e4:	93a00001 	movls	r0, #1
    26e8:	e0100fa8 	ands	r0, r0, r8, lsr #31
    26ec:	1a000011 	bne	2738 <_ZNK17ConnectionBuilder15MatrixGenerator7Plastic8WriteRowEPmmmmmlmmmmmRA512_KtRA512_KlS8_+0x260>
    26f0:	e3580000 	cmp	r8, #0
    26f4:	ba000011 	blt	2740 <_ZNK17ConnectionBuilder15MatrixGenerator7Plastic8WriteRowEPmmmmmlmmmmmRA512_KtRA512_KlS8_+0x268>
    26f8:	e59d308c 	ldr	r3, [sp, #140]	; 0x8c
    26fc:	e1c88fc8 	bic	r8, r8, r8, asr #31
    2700:	e793310b 	ldr	r3, [r3, fp, lsl #2]
    2704:	e3530001 	cmp	r3, #1
    2708:	b3a03001 	movlt	r3, #1
    270c:	e3530010 	cmp	r3, #16
    2710:	daffff9c 	ble	2588 <_ZNK17ConnectionBuilder15MatrixGenerator7Plastic8WriteRowEPmmmmmlmmmmmRA512_KtRA512_KlS8_+0xb0>
    2714:	e213e00f 	ands	lr, r3, #15
    2718:	03a00002 	moveq	r0, #2
    271c:	13a00001 	movne	r0, #1
    2720:	e0603243 	rsb	r3, r0, r3, asr #4
    2724:	e59d4038 	ldr	r4, [sp, #56]	; 0x38
    2728:	e59d0034 	ldr	r0, [sp, #52]	; 0x34
    272c:	e0204093 	mla	r0, r3, r0, r4
    2730:	e58d0018 	str	r0, [sp, #24]
    2734:	eaffff95 	b	2590 <_ZNK17ConnectionBuilder15MatrixGenerator7Plastic8WriteRowEPmmmmmlmmmmmRA512_KtRA512_KlS8_+0xb8>
    2738:	e3a00001 	mov	r0, #1
    273c:	e58d0084 	str	r0, [sp, #132]	; 0x84
    2740:	e2638000 	rsb	r8, r3, #0
    2744:	e1a08808 	lsl	r8, r8, #16
    2748:	e1a08848 	asr	r8, r8, #16
    274c:	eaffffe9 	b	26f8 <_ZNK17ConnectionBuilder15MatrixGenerator7Plastic8WriteRowEPmmmmmlmmmmmRA512_KtRA512_KlS8_+0x220>
    2750:	e3570001 	cmp	r7, #1
    2754:	9affffc6 	bls	2674 <_ZNK17ConnectionBuilder15MatrixGenerator7Plastic8WriteRowEPmmmmmlmmmmmRA512_KtRA512_KlS8_+0x19c>
    2758:	e2823004 	add	r3, r2, #4
    275c:	e59de014 	ldr	lr, [sp, #20]
    2760:	e2822006 	add	r2, r2, #6
    2764:	e59dc008 	ldr	ip, [sp, #8]
    2768:	e3a00001 	mov	r0, #1
    276c:	ea000009 	b	2798 <_ZNK17ConnectionBuilder15MatrixGenerator7Plastic8WriteRowEPmmmmmlmmmmmRA512_KtRA512_KlS8_+0x2c0>
    2770:	e1d350b0 	ldrh	r5, [r3]
    2774:	e001a005 	and	sl, r1, r5
    2778:	e15a0009 	cmp	sl, r9
    277c:	ba000015 	blt	27d8 <_ZNK17ConnectionBuilder15MatrixGenerator7Plastic8WriteRowEPmmmmmlmmmmmRA512_KtRA512_KlS8_+0x300>
    2780:	ca00001d 	bgt	27fc <_ZNK17ConnectionBuilder15MatrixGenerator7Plastic8WriteRowEPmmmmmlmmmmmRA512_KtRA512_KlS8_+0x324>
    2784:	e2800001 	add	r0, r0, #1
    2788:	e1570000 	cmp	r7, r0
    278c:	e2833002 	add	r3, r3, #2
    2790:	e08ee006 	add	lr, lr, r6
    2794:	0affffb6 	beq	2674 <_ZNK17ConnectionBuilder15MatrixGenerator7Plastic8WriteRowEPmmmmmlmmmmmRA512_KtRA512_KlS8_+0x19c>
    2798:	e1d250b0 	ldrh	r5, [r2]
    279c:	e001a00c 	and	sl, r1, ip
    27a0:	e3550000 	cmp	r5, #0
    27a4:	e1a04002 	mov	r4, r2
    27a8:	e1a0900a 	mov	r9, sl
    27ac:	e2822002 	add	r2, r2, #2
    27b0:	0affffee 	beq	2770 <_ZNK17ConnectionBuilder15MatrixGenerator7Plastic8WriteRowEPmmmmmlmmmmmRA512_KtRA512_KlS8_+0x298>
    27b4:	e1d340b0 	ldrh	r4, [r3]
    27b8:	e0015004 	and	r5, r1, r4
    27bc:	e155000a 	cmp	r5, sl
    27c0:	c1c3c0b0 	strhgt	ip, [r3]
    27c4:	c1de50b0 	ldrhgt	r5, [lr]
    27c8:	c1a0c004 	movgt	ip, r4
    27cc:	c1ce80b0 	strhgt	r8, [lr]
    27d0:	c1a08005 	movgt	r8, r5
    27d4:	eaffffea 	b	2784 <_ZNK17ConnectionBuilder15MatrixGenerator7Plastic8WriteRowEPmmmmmlmmmmmRA512_KtRA512_KlS8_+0x2ac>
    27d8:	e59d3078 	ldr	r3, [sp, #120]	; 0x78
    27dc:	e1c4c0b0 	strh	ip, [r4]
    27e0:	e1a02003 	mov	r2, r3
    27e4:	e0232390 	mla	r3, r0, r3, r2
    27e8:	e1a00003 	mov	r0, r3
    27ec:	e59d3014 	ldr	r3, [sp, #20]
    27f0:	e0830080 	add	r0, r3, r0, lsl #1
    27f4:	e14080b2 	strh	r8, [r0, #-2]
    27f8:	eaffff9d 	b	2674 <_ZNK17ConnectionBuilder15MatrixGenerator7Plastic8WriteRowEPmmmmmlmmmmmRA512_KtRA512_KlS8_+0x19c>
    27fc:	e59d2078 	ldr	r2, [sp, #120]	; 0x78
    2800:	e1c450b0 	strh	r5, [r4]
    2804:	e1a0e002 	mov	lr, r2
    2808:	e022e290 	mla	r2, r0, r2, lr
    280c:	e1c3c0b0 	strh	ip, [r3]
    2810:	e1a00002 	mov	r0, r2
    2814:	e040200e 	sub	r2, r0, lr
    2818:	e59dc014 	ldr	ip, [sp, #20]
    281c:	e2422106 	sub	r2, r2, #-2147483647	; 0x80000001
    2820:	e1a02082 	lsl	r2, r2, #1
    2824:	e19c30b2 	ldrh	r3, [ip, r2]
    2828:	e08c0080 	add	r0, ip, r0, lsl #1
    282c:	e14030b2 	strh	r3, [r0, #-2]
    2830:	e18c80b2 	strh	r8, [ip, r2]
    2834:	eaffff8e 	b	2674 <_ZNK17ConnectionBuilder15MatrixGenerator7Plastic8WriteRowEPmmmmmlmmmmmRA512_KtRA512_KlS8_+0x19c>
    2838:	e3a00000 	mov	r0, #0
    283c:	e28dd044 	add	sp, sp, #68	; 0x44
    2840:	e8bd8ff0 	pop	{r4, r5, r6, r7, r8, r9, sl, fp, pc}

00002844 <_ZNK17ConnectionBuilder15MatrixGenerator6Static8WriteRowEPmmmmmlmmmmmRA512_KtRA512_KlS8_>:
    2844:	e92d4ff0 	push	{r4, r5, r6, r7, r8, r9, sl, fp, lr}
    2848:	e24dd024 	sub	sp, sp, #36	; 0x24
    284c:	e59d804c 	ldr	r8, [sp, #76]	; 0x4c
    2850:	e59d7060 	ldr	r7, [sp, #96]	; 0x60
    2854:	e59d405c 	ldr	r4, [sp, #92]	; 0x5c
    2858:	e1570008 	cmp	r7, r8
    285c:	e59de054 	ldr	lr, [sp, #84]	; 0x54
    2860:	e3a05001 	mov	r5, #1
    2864:	31a06007 	movcc	r6, r7
    2868:	21a06008 	movcs	r6, r8
    286c:	e28ec008 	add	ip, lr, #8
    2870:	e58d6014 	str	r6, [sp, #20]
    2874:	e3580000 	cmp	r8, #0
    2878:	e0046005 	and	r6, r4, r5
    287c:	e58dc004 	str	ip, [sp, #4]
    2880:	e58d2018 	str	r2, [sp, #24]
    2884:	e58d301c 	str	r3, [sp, #28]
    2888:	e1a02003 	mov	r2, r3
    288c:	e1a0cc15 	lsl	ip, r5, ip
    2890:	e58d0008 	str	r0, [sp, #8]
    2894:	e0863534 	add	r3, r6, r4, lsr r5
    2898:	0a000066 	beq	2a38 <_ZNK17ConnectionBuilder15MatrixGenerator6Static8WriteRowEPmmmmmlmmmmmRA512_KtRA512_KlS8_+0x1f4>
    289c:	e1a0ee15 	lsl	lr, r5, lr
    28a0:	e3a04000 	mov	r4, #0
    28a4:	e24e0001 	sub	r0, lr, #1
    28a8:	e1a03103 	lsl	r3, r3, #2
    28ac:	e24cc001 	sub	ip, ip, #1
    28b0:	e1a0b004 	mov	fp, r4
    28b4:	e58d0010 	str	r0, [sp, #16]
    28b8:	e58d300c 	str	r3, [sp, #12]
    28bc:	e58d2000 	str	r2, [sp]
    28c0:	e59d3070 	ldr	r3, [sp, #112]	; 0x70
    28c4:	e7933104 	ldr	r3, [r3, r4, lsl #2]
    28c8:	e3530000 	cmp	r3, #0
    28cc:	0a000054 	beq	2a24 <_ZNK17ConnectionBuilder15MatrixGenerator6Static8WriteRowEPmmmmmlmmmmmRA512_KtRA512_KlS8_+0x1e0>
    28d0:	e59d2008 	ldr	r2, [sp, #8]
    28d4:	e5922010 	ldr	r2, [r2, #16]
    28d8:	e3520000 	cmp	r2, #0
    28dc:	0a000007 	beq	2900 <_ZNK17ConnectionBuilder15MatrixGenerator6Static8WriteRowEPmmmmmlmmmmmRA512_KtRA512_KlS8_+0xbc>
    28e0:	e59d2064 	ldr	r2, [sp, #100]	; 0x64
    28e4:	e3520001 	cmp	r2, #1
    28e8:	83a02000 	movhi	r2, #0
    28ec:	93a02001 	movls	r2, #1
    28f0:	e0122fa3 	ands	r2, r2, r3, lsr #31
    28f4:	13a02001 	movne	r2, #1
    28f8:	12633000 	rsbne	r3, r3, #0
    28fc:	158d2064 	strne	r2, [sp, #100]	; 0x64
    2900:	e1c32fc3 	bic	r2, r3, r3, asr #31
    2904:	e59d306c 	ldr	r3, [sp, #108]	; 0x6c
    2908:	e59f016c 	ldr	r0, [pc, #364]	; 2a7c <_ZNK17ConnectionBuilder15MatrixGenerator6Static8WriteRowEPmmmmmlmmmmmRA512_KtRA512_KlS8_+0x238>
    290c:	e7933104 	ldr	r3, [r3, r4, lsl #2]
    2910:	e1520000 	cmp	r2, r0
    2914:	a1a02000 	movge	r2, r0
    2918:	e3530001 	cmp	r3, #1
    291c:	b3a03001 	movlt	r3, #1
    2920:	e3530010 	cmp	r3, #16
    2924:	ca000046 	bgt	2a44 <_ZNK17ConnectionBuilder15MatrixGenerator6Static8WriteRowEPmmmmmlmmmmmRA512_KtRA512_KlS8_+0x200>
    2928:	e59d0000 	ldr	r0, [sp]
    292c:	e203e00f 	and	lr, r3, #15
    2930:	e59d6048 	ldr	r6, [sp, #72]	; 0x48
    2934:	e59d3068 	ldr	r3, [sp, #104]	; 0x68
    2938:	e0000096 	mul	r0, r6, r0
    293c:	e7d33084 	ldrb	r3, [r3, r4, lsl #1]
    2940:	e59d6004 	ldr	r6, [sp, #4]
    2944:	e3550000 	cmp	r5, #0
    2948:	e183e61e 	orr	lr, r3, lr, lsl r6
    294c:	e59d5010 	ldr	r5, [sp, #16]
    2950:	e59d3064 	ldr	r3, [sp, #100]	; 0x64
    2954:	e2800001 	add	r0, r0, #1
    2958:	e0033005 	and	r3, r3, r5
    295c:	e18e3403 	orr	r3, lr, r3, lsl #8
    2960:	e59de00c 	ldr	lr, [sp, #12]
    2964:	e1833802 	orr	r3, r3, r2, lsl #16
    2968:	e08e0100 	add	r0, lr, r0, lsl #2
    296c:	e081e000 	add	lr, r1, r0
    2970:	0a000005 	beq	298c <_ZNK17ConnectionBuilder15MatrixGenerator6Static8WriteRowEPmmmmmlmmmmmRA512_KtRA512_KlS8_+0x148>
    2974:	e7912000 	ldr	r2, [r1, r0]
    2978:	e59d5014 	ldr	r5, [sp, #20]
    297c:	e0852002 	add	r2, r5, r2
    2980:	e1520007 	cmp	r2, r7
    2984:	21a02007 	movcs	r2, r7
    2988:	e7812000 	str	r2, [r1, r0]
    298c:	e59e2008 	ldr	r2, [lr, #8]
    2990:	e3520000 	cmp	r2, #0
    2994:	058e3008 	streq	r3, [lr, #8]
    2998:	0a00001d 	beq	2a14 <_ZNK17ConnectionBuilder15MatrixGenerator6Static8WriteRowEPmmmmmlmmmmmRA512_KtRA512_KlS8_+0x1d0>
    299c:	e3570001 	cmp	r7, #1
    29a0:	828e2008 	addhi	r2, lr, #8
    29a4:	828e000c 	addhi	r0, lr, #12
    29a8:	83a0e001 	movhi	lr, #1
    29ac:	8a000008 	bhi	29d4 <_ZNK17ConnectionBuilder15MatrixGenerator6Static8WriteRowEPmmmmmlmmmmmRA512_KtRA512_KlS8_+0x190>
    29b0:	ea000017 	b	2a14 <_ZNK17ConnectionBuilder15MatrixGenerator6Static8WriteRowEPmmmmmlmmmmmRA512_KtRA512_KlS8_+0x1d0>
    29b4:	e5926000 	ldr	r6, [r2]
    29b8:	e00ca006 	and	sl, ip, r6
    29bc:	e15a0009 	cmp	sl, r9
    29c0:	3a000028 	bcc	2a68 <_ZNK17ConnectionBuilder15MatrixGenerator6Static8WriteRowEPmmmmmlmmmmmRA512_KtRA512_KlS8_+0x224>
    29c4:	8a000029 	bhi	2a70 <_ZNK17ConnectionBuilder15MatrixGenerator6Static8WriteRowEPmmmmmlmmmmmRA512_KtRA512_KlS8_+0x22c>
    29c8:	e157000e 	cmp	r7, lr
    29cc:	e2822004 	add	r2, r2, #4
    29d0:	0a00000f 	beq	2a14 <_ZNK17ConnectionBuilder15MatrixGenerator6Static8WriteRowEPmmmmmlmmmmmRA512_KtRA512_KlS8_+0x1d0>
    29d4:	e5906000 	ldr	r6, [r0]
    29d8:	e00ca003 	and	sl, ip, r3
    29dc:	e3560000 	cmp	r6, #0
    29e0:	e1a05000 	mov	r5, r0
    29e4:	e28ee001 	add	lr, lr, #1
    29e8:	e1a0900a 	mov	r9, sl
    29ec:	e2800004 	add	r0, r0, #4
    29f0:	0affffef 	beq	29b4 <_ZNK17ConnectionBuilder15MatrixGenerator6Static8WriteRowEPmmmmmlmmmmmRA512_KtRA512_KlS8_+0x170>
    29f4:	e5925000 	ldr	r5, [r2]
    29f8:	e2822004 	add	r2, r2, #4
    29fc:	e00c6005 	and	r6, ip, r5
    2a00:	e156000a 	cmp	r6, sl
    2a04:	85023004 	strhi	r3, [r2, #-4]
    2a08:	81a03005 	movhi	r3, r5
    2a0c:	e157000e 	cmp	r7, lr
    2a10:	1affffef 	bne	29d4 <_ZNK17ConnectionBuilder15MatrixGenerator6Static8WriteRowEPmmmmmlmmmmmRA512_KtRA512_KlS8_+0x190>
    2a14:	e28bb001 	add	fp, fp, #1
    2a18:	e157000b 	cmp	r7, fp
    2a1c:	0a000005 	beq	2a38 <_ZNK17ConnectionBuilder15MatrixGenerator6Static8WriteRowEPmmmmmlmmmmmRA512_KtRA512_KlS8_+0x1f4>
    2a20:	e3a05000 	mov	r5, #0
    2a24:	e2844001 	add	r4, r4, #1
    2a28:	e1a04804 	lsl	r4, r4, #16
    2a2c:	e1a04824 	lsr	r4, r4, #16
    2a30:	e1580004 	cmp	r8, r4
    2a34:	8affffa1 	bhi	28c0 <_ZNK17ConnectionBuilder15MatrixGenerator6Static8WriteRowEPmmmmmlmmmmmRA512_KtRA512_KlS8_+0x7c>
    2a38:	e3a00001 	mov	r0, #1
    2a3c:	e28dd024 	add	sp, sp, #36	; 0x24
    2a40:	e8bd8ff0 	pop	{r4, r5, r6, r7, r8, r9, sl, fp, pc}
    2a44:	e213e00f 	ands	lr, r3, #15
    2a48:	13a00001 	movne	r0, #1
    2a4c:	03a00002 	moveq	r0, #2
    2a50:	e0603243 	rsb	r3, r0, r3, asr #4
    2a54:	e59d601c 	ldr	r6, [sp, #28]
    2a58:	e59d0018 	ldr	r0, [sp, #24]
    2a5c:	e0206093 	mla	r0, r3, r0, r6
    2a60:	e58d0000 	str	r0, [sp]
    2a64:	eaffffb1 	b	2930 <_ZNK17ConnectionBuilder15MatrixGenerator6Static8WriteRowEPmmmmmlmmmmmRA512_KtRA512_KlS8_+0xec>
    2a68:	e5853000 	str	r3, [r5]
    2a6c:	eaffffe8 	b	2a14 <_ZNK17ConnectionBuilder15MatrixGenerator6Static8WriteRowEPmmmmmlmmmmmRA512_KtRA512_KlS8_+0x1d0>
    2a70:	e5856000 	str	r6, [r5]
    2a74:	e5823000 	str	r3, [r2]
    2a78:	eaffffe5 	b	2a14 <_ZNK17ConnectionBuilder15MatrixGenerator6Static8WriteRowEPmmmmmlmmmmmRA512_KtRA512_KlS8_+0x1d0>
    2a7c:	0000ffff 	.word	0x0000ffff

00002a80 <_Z6memcpyPvPKvj>:
    2a80:	e92d4010 	push	{r4, lr}
    2a84:	e1a04000 	mov	r4, r0
    2a88:	fb000925 	blx	4f26 <spin1_memcpy>
    2a8c:	e1a00004 	mov	r0, r4
    2a90:	e8bd8010 	pop	{r4, pc}

00002a94 <_ZN17ConnectionBuilder15MatrixGenerator4BaseC1ERPm>:
    2a94:	e591c000 	ldr	ip, [r1]
    2a98:	e52de004 	push	{lr}		; (str lr, [sp, #-4]!)
    2a9c:	e1a0200c 	mov	r2, ip
    2aa0:	e492e008 	ldr	lr, [r2], #8
    2aa4:	e580e010 	str	lr, [r0, #16]
    2aa8:	e59fe010 	ldr	lr, [pc, #16]	; 2ac0 <_ZN17ConnectionBuilder15MatrixGenerator4BaseC1ERPm+0x2c>
    2aac:	e59cc004 	ldr	ip, [ip, #4]
    2ab0:	e580e000 	str	lr, [r0]
    2ab4:	e5812000 	str	r2, [r1]
    2ab8:	e580c004 	str	ip, [r0, #4]
    2abc:	e49df004 	pop	{pc}		; (ldr pc, [sp], #4)
    2ac0:	00005d00 	.word	0x00005d00

00002ac4 <_ZNK17ConnectionBuilder15MatrixGenerator4Base8GenerateEPmmmmmmmmmmmmmmmmPlmPNS_18ConnectorGenerator4BaseEPKNS_14ParamGenerator4BaseESA_RN6Common6Random10MarsKiss64EPtRt>:
    2ac4:	e92d4ff0 	push	{r4, r5, r6, r7, r8, r9, sl, fp, lr}
    2ac8:	e24ddd51 	sub	sp, sp, #5184	; 0x1440
    2acc:	e24dd014 	sub	sp, sp, #20
    2ad0:	e28dcd52 	add	ip, sp, #5248	; 0x1480
    2ad4:	e28ded52 	add	lr, sp, #5248	; 0x1480
    2ad8:	e28cc01c 	add	ip, ip, #28
    2adc:	e28ee020 	add	lr, lr, #32
    2ae0:	e59ee000 	ldr	lr, [lr]
    2ae4:	e59cc000 	ldr	ip, [ip]
    2ae8:	e58d104c 	str	r1, [sp, #76]	; 0x4c
    2aec:	e28d1d51 	add	r1, sp, #5184	; 0x1440
    2af0:	e2811038 	add	r1, r1, #56	; 0x38
    2af4:	e08cc00e 	add	ip, ip, lr
    2af8:	e5911000 	ldr	r1, [r1]
    2afc:	e28ded53 	add	lr, sp, #5312	; 0x14c0
    2b00:	e28ee008 	add	lr, lr, #8
    2b04:	e59e4000 	ldr	r4, [lr]
    2b08:	e58d3048 	str	r3, [sp, #72]	; 0x48
    2b0c:	e28ded52 	add	lr, sp, #5248	; 0x1480
    2b10:	e0813003 	add	r3, r1, r3
    2b14:	e28ee01c 	add	lr, lr, #28
    2b18:	e58d3034 	str	r3, [sp, #52]	; 0x34
    2b1c:	e28d3d52 	add	r3, sp, #5248	; 0x1480
    2b20:	e283302c 	add	r3, r3, #44	; 0x2c
    2b24:	e59ee000 	ldr	lr, [lr]
    2b28:	e5931000 	ldr	r1, [r3]
    2b2c:	e28d3d53 	add	r3, sp, #5312	; 0x14c0
    2b30:	e3a06000 	mov	r6, #0
    2b34:	e2833004 	add	r3, r3, #4
    2b38:	e15e000c 	cmp	lr, ip
    2b3c:	e58dc038 	str	ip, [sp, #56]	; 0x38
    2b40:	e58d0044 	str	r0, [sp, #68]	; 0x44
    2b44:	e1c460b0 	strh	r6, [r4]
    2b48:	e5935000 	ldr	r5, [r3]
    2b4c:	2a000097 	bcs	2db0 <_ZNK17ConnectionBuilder15MatrixGenerator4Base8GenerateEPmmmmmmmmmmmmmmmmPlmPNS_18ConnectorGenerator4BaseEPKNS_14ParamGenerator4BaseESA_RN6Common6Random10MarsKiss64EPtRt+0x2ec>
    2b50:	e59d304c 	ldr	r3, [sp, #76]	; 0x4c
    2b54:	e1a0700e 	mov	r7, lr
    2b58:	e0833102 	add	r3, r3, r2, lsl #2
    2b5c:	e2833004 	add	r3, r3, #4
    2b60:	e58d3040 	str	r3, [sp, #64]	; 0x40
    2b64:	e28d3d52 	add	r3, sp, #5248	; 0x1480
    2b68:	e5933000 	ldr	r3, [r3]
    2b6c:	e28d9050 	add	r9, sp, #80	; 0x50
    2b70:	e0813103 	add	r3, r1, r3, lsl #2
    2b74:	e28dae45 	add	sl, sp, #1104	; 0x450
    2b78:	e58d303c 	str	r3, [sp, #60]	; 0x3c
    2b7c:	e28d3d52 	add	r3, sp, #5248	; 0x1480
    2b80:	e2833034 	add	r3, r3, #52	; 0x34
    2b84:	e5933000 	ldr	r3, [r3]
    2b88:	e28d1d52 	add	r1, sp, #5248	; 0x1480
    2b8c:	e5932000 	ldr	r2, [r3]
    2b90:	e28d3d53 	add	r3, sp, #5312	; 0x14c0
    2b94:	e58d9010 	str	r9, [sp, #16]
    2b98:	e5933000 	ldr	r3, [r3]
    2b9c:	e58d300c 	str	r3, [sp, #12]
    2ba0:	e59d3034 	ldr	r3, [sp, #52]	; 0x34
    2ba4:	e58d3008 	str	r3, [sp, #8]
    2ba8:	e28d3d52 	add	r3, sp, #5248	; 0x1480
    2bac:	e2833008 	add	r3, r3, #8
    2bb0:	e5933000 	ldr	r3, [r3]
    2bb4:	e58d3004 	str	r3, [sp, #4]
    2bb8:	e28d3d52 	add	r3, sp, #5248	; 0x1480
    2bbc:	e2833004 	add	r3, r3, #4
    2bc0:	e5933000 	ldr	r3, [r3]
    2bc4:	e58d3000 	str	r3, [sp]
    2bc8:	e28d0d52 	add	r0, sp, #5248	; 0x1480
    2bcc:	e5928000 	ldr	r8, [r2]
    2bd0:	e28d2d52 	add	r2, sp, #5248	; 0x1480
    2bd4:	e2822020 	add	r2, r2, #32
    2bd8:	e281101c 	add	r1, r1, #28
    2bdc:	e2800034 	add	r0, r0, #52	; 0x34
    2be0:	e1a03007 	mov	r3, r7
    2be4:	e5922000 	ldr	r2, [r2]
    2be8:	e5911000 	ldr	r1, [r1]
    2bec:	e5900000 	ldr	r0, [r0]
    2bf0:	e12fff38 	blx	r8
    2bf4:	e28d3d52 	add	r3, sp, #5248	; 0x1480
    2bf8:	e2833038 	add	r3, r3, #56	; 0x38
    2bfc:	e5933000 	ldr	r3, [r3]
    2c00:	e28d2d53 	add	r2, sp, #5312	; 0x14c0
    2c04:	e5933000 	ldr	r3, [r3]
    2c08:	e58da00c 	str	sl, [sp, #12]
    2c0c:	e5922000 	ldr	r2, [r2]
    2c10:	e58d2008 	str	r2, [sp, #8]
    2c14:	e28d2d52 	add	r2, sp, #5248	; 0x1480
    2c18:	e2822004 	add	r2, r2, #4
    2c1c:	e58d9004 	str	r9, [sp, #4]
    2c20:	e5922000 	ldr	r2, [r2]
    2c24:	e58d2000 	str	r2, [sp]
    2c28:	e1a02006 	mov	r2, r6
    2c2c:	e593b000 	ldr	fp, [r3]
    2c30:	e1a03007 	mov	r3, r7
    2c34:	e1a08000 	mov	r8, r0
    2c38:	e1a01000 	mov	r1, r0
    2c3c:	e28d0d52 	add	r0, sp, #5248	; 0x1480
    2c40:	e2800038 	add	r0, r0, #56	; 0x38
    2c44:	e5900000 	ldr	r0, [r0]
    2c48:	e12fff3b 	blx	fp
    2c4c:	e28d3d52 	add	r3, sp, #5248	; 0x1480
    2c50:	e283303c 	add	r3, r3, #60	; 0x3c
    2c54:	e5933000 	ldr	r3, [r3]
    2c58:	e59d203c 	ldr	r2, [sp, #60]	; 0x3c
    2c5c:	e28d1ec5 	add	r1, sp, #3152	; 0xc50
    2c60:	e5933000 	ldr	r3, [r3]
    2c64:	e5922000 	ldr	r2, [r2]
    2c68:	e58d100c 	str	r1, [sp, #12]
    2c6c:	e28d1d53 	add	r1, sp, #5312	; 0x14c0
    2c70:	e5911000 	ldr	r1, [r1]
    2c74:	e58d1008 	str	r1, [sp, #8]
    2c78:	e28d1d52 	add	r1, sp, #5248	; 0x1480
    2c7c:	e2811004 	add	r1, r1, #4
    2c80:	e28d0d52 	add	r0, sp, #5248	; 0x1480
    2c84:	e58d9004 	str	r9, [sp, #4]
    2c88:	e280003c 	add	r0, r0, #60	; 0x3c
    2c8c:	e5911000 	ldr	r1, [r1]
    2c90:	e58d1000 	str	r1, [sp]
    2c94:	e1a01008 	mov	r1, r8
    2c98:	e5900000 	ldr	r0, [r0]
    2c9c:	e593b000 	ldr	fp, [r3]
    2ca0:	e1a03007 	mov	r3, r7
    2ca4:	e12fff3b 	blx	fp
    2ca8:	e3580000 	cmp	r8, #0
    2cac:	12480107 	subne	r0, r8, #-1073741823	; 0xc0000001
    2cb0:	124a1004 	subne	r1, sl, #4
    2cb4:	1207c0ff 	andne	ip, r7, #255	; 0xff
    2cb8:	108a0100 	addne	r0, sl, r0, lsl #2
    2cbc:	0a000010 	beq	2d04 <_ZNK17ConnectionBuilder15MatrixGenerator4Base8GenerateEPmmmmmmmmmmmmmmmmPlmPNS_18ConnectorGenerator4BaseEPKNS_14ParamGenerator4BaseESA_RN6Common6Random10MarsKiss64EPtRt+0x240>
    2cc0:	e5b13004 	ldr	r3, [r1, #4]!
    2cc4:	e1d420b0 	ldrh	r2, [r4]
    2cc8:	e3530001 	cmp	r3, #1
    2ccc:	b3a03001 	movlt	r3, #1
    2cd0:	e18ce403 	orr	lr, ip, r3, lsl #8
    2cd4:	e3530010 	cmp	r3, #16
    2cd8:	e1a03082 	lsl	r3, r2, #1
    2cdc:	e18560b3 	strh	r6, [r5, r3]
    2ce0:	da000005 	ble	2cfc <_ZNK17ConnectionBuilder15MatrixGenerator4Base8GenerateEPmmmmmmmmmmmmmmmmPlmPNS_18ConnectorGenerator4BaseEPKNS_14ParamGenerator4BaseESA_RN6Common6Random10MarsKiss64EPtRt+0x238>
    2ce4:	e1d430b0 	ldrh	r3, [r4]
    2ce8:	e1a03083 	lsl	r3, r3, #1
    2cec:	e185e0b3 	strh	lr, [r5, r3]
    2cf0:	e1d430b0 	ldrh	r3, [r4]
    2cf4:	e2833001 	add	r3, r3, #1
    2cf8:	e1c430b0 	strh	r3, [r4]
    2cfc:	e1510000 	cmp	r1, r0
    2d00:	1affffee 	bne	2cc0 <_ZNK17ConnectionBuilder15MatrixGenerator4Base8GenerateEPmmmmmmmmmmmmmmmmPlmPNS_18ConnectorGenerator4BaseEPKNS_14ParamGenerator4BaseESA_RN6Common6Random10MarsKiss64EPtRt+0x1fc>
    2d04:	e59d0044 	ldr	r0, [sp, #68]	; 0x44
    2d08:	e28d3ec5 	add	r3, sp, #3152	; 0xc50
    2d0c:	e5902000 	ldr	r2, [r0]
    2d10:	e58d3028 	str	r3, [sp, #40]	; 0x28
    2d14:	e28d3d52 	add	r3, sp, #5248	; 0x1480
    2d18:	e58da024 	str	sl, [sp, #36]	; 0x24
    2d1c:	e58d9020 	str	r9, [sp, #32]
    2d20:	e5933000 	ldr	r3, [r3]
    2d24:	e58d301c 	str	r3, [sp, #28]
    2d28:	e59d3048 	ldr	r3, [sp, #72]	; 0x48
    2d2c:	e58d3018 	str	r3, [sp, #24]
    2d30:	e28d3d51 	add	r3, sp, #5184	; 0x1440
    2d34:	e2833038 	add	r3, r3, #56	; 0x38
    2d38:	e5933000 	ldr	r3, [r3]
    2d3c:	e58d3014 	str	r3, [sp, #20]
    2d40:	e28d3d52 	add	r3, sp, #5248	; 0x1480
    2d44:	e2833028 	add	r3, r3, #40	; 0x28
    2d48:	e5933000 	ldr	r3, [r3]
    2d4c:	e58d3010 	str	r3, [sp, #16]
    2d50:	e28d3d52 	add	r3, sp, #5248	; 0x1480
    2d54:	e2833030 	add	r3, r3, #48	; 0x30
    2d58:	e5933000 	ldr	r3, [r3]
    2d5c:	e58d300c 	str	r3, [sp, #12]
    2d60:	e28d3d51 	add	r3, sp, #5184	; 0x1440
    2d64:	e283303c 	add	r3, r3, #60	; 0x3c
    2d68:	e58d6008 	str	r6, [sp, #8]
    2d6c:	e58d8004 	str	r8, [sp, #4]
    2d70:	e5933000 	ldr	r3, [r3]
    2d74:	e58d3000 	str	r3, [sp]
    2d78:	e28d3d52 	add	r3, sp, #5248	; 0x1480
    2d7c:	e2833014 	add	r3, r3, #20
    2d80:	e5933000 	ldr	r3, [r3]
    2d84:	e5928000 	ldr	r8, [r2]
    2d88:	e28d2d52 	add	r2, sp, #5248	; 0x1480
    2d8c:	e2822018 	add	r2, r2, #24
    2d90:	e0473003 	sub	r3, r7, r3
    2d94:	e5922000 	ldr	r2, [r2]
    2d98:	e59d1040 	ldr	r1, [sp, #64]	; 0x40
    2d9c:	e12fff38 	blx	r8
    2da0:	e59d3038 	ldr	r3, [sp, #56]	; 0x38
    2da4:	e2877001 	add	r7, r7, #1
    2da8:	e1570003 	cmp	r7, r3
    2dac:	1affff72 	bne	2b7c <_ZNK17ConnectionBuilder15MatrixGenerator4Base8GenerateEPmmmmmmmmmmmmmmmmPlmPNS_18ConnectorGenerator4BaseEPKNS_14ParamGenerator4BaseESA_RN6Common6Random10MarsKiss64EPtRt+0xb8>
    2db0:	e59d104c 	ldr	r1, [sp, #76]	; 0x4c
    2db4:	e3a02000 	mov	r2, #0
    2db8:	e5913000 	ldr	r3, [r1]
    2dbc:	e3a00001 	mov	r0, #1
    2dc0:	e1a03123 	lsr	r3, r3, #2
    2dc4:	e2833001 	add	r3, r3, #1
    2dc8:	e7812103 	str	r2, [r1, r3, lsl #2]
    2dcc:	e28ddd51 	add	sp, sp, #5184	; 0x1440
    2dd0:	e28dd014 	add	sp, sp, #20
    2dd4:	e8bd8ff0 	pop	{r4, r5, r6, r7, r8, r9, sl, fp, pc}

00002dd8 <_ZNK17ConnectionBuilder15MatrixGenerator4Base9TraceUIntERA512_mj>:
    2dd8:	e12fff1e 	bx	lr

00002ddc <_ZNK17ConnectionBuilder15MatrixGenerator4Base8TraceIntERA512_lj>:
    2ddc:	e12fff1e 	bx	lr

00002de0 <_ZN17ConnectionBuilder15MatrixGenerator6StaticC1ERPm>:
    2de0:	e591c000 	ldr	ip, [r1]
    2de4:	e92d4010 	push	{r4, lr}
    2de8:	e1a0300c 	mov	r3, ip
    2dec:	e4932008 	ldr	r2, [r3], #8
    2df0:	e5802010 	str	r2, [r0, #16]
    2df4:	e1a04000 	mov	r4, r0
    2df8:	e59cc004 	ldr	ip, [ip, #4]
    2dfc:	e59f0028 	ldr	r0, [pc, #40]	; 2e2c <_ZN17ConnectionBuilder15MatrixGenerator6StaticC1ERPm+0x4c>
    2e00:	e2922000 	adds	r2, r2, #0
    2e04:	e5813000 	str	r3, [r1]
    2e08:	13a02001 	movne	r2, #1
    2e0c:	e8841001 	stm	r4, {r0, ip}
    2e10:	e59f1018 	ldr	r1, [pc, #24]	; 2e30 <_ZN17ConnectionBuilder15MatrixGenerator6StaticC1ERPm+0x50>
    2e14:	e3a00002 	mov	r0, #2
    2e18:	fa00061d 	blx	4694 <io_printf>
    2e1c:	e3a03001 	mov	r3, #1
    2e20:	e5c4300c 	strb	r3, [r4, #12]
    2e24:	e1a00004 	mov	r0, r4
    2e28:	e8bd8010 	pop	{r4, pc}
    2e2c:	00005d10 	.word	0x00005d10
    2e30:	00005d28 	.word	0x00005d28

00002e34 <_ZN17ConnectionBuilder15MatrixGenerator7PlasticC1ERPm>:
    2e34:	e591c000 	ldr	ip, [r1]
    2e38:	e92d4010 	push	{r4, lr}
    2e3c:	e1a0300c 	mov	r3, ip
    2e40:	e4932008 	ldr	r2, [r3], #8
    2e44:	e5802010 	str	r2, [r0, #16]
    2e48:	e1a04000 	mov	r4, r0
    2e4c:	e59c0004 	ldr	r0, [ip, #4]
    2e50:	e3a0c000 	mov	ip, #0
    2e54:	e59fe02c 	ldr	lr, [pc, #44]	; 2e88 <_ZN17ConnectionBuilder15MatrixGenerator7PlasticC1ERPm+0x54>
    2e58:	e052200c 	subs	r2, r2, ip
    2e5c:	e5813000 	str	r3, [r1]
    2e60:	13a02001 	movne	r2, #1
    2e64:	e1a03000 	mov	r3, r0
    2e68:	e5840004 	str	r0, [r4, #4]
    2e6c:	e584e000 	str	lr, [r4]
    2e70:	e5c4c00c 	strb	ip, [r4, #12]
    2e74:	e59f1010 	ldr	r1, [pc, #16]	; 2e8c <_ZN17ConnectionBuilder15MatrixGenerator7PlasticC1ERPm+0x58>
    2e78:	e3a00002 	mov	r0, #2
    2e7c:	fa000604 	blx	4694 <io_printf>
    2e80:	e1a00004 	mov	r0, r4
    2e84:	e8bd8010 	pop	{r4, pc}
    2e88:	00005d20 	.word	0x00005d20
    2e8c:	00005d68 	.word	0x00005d68

00002e90 <_ZNK17ConnectionBuilder14ParamGenerator8Constant8GenerateEjjmmPtRN6Common6Random10MarsKiss64ERA512_l>:
    2e90:	e3510000 	cmp	r1, #0
    2e94:	012fff1e 	bxeq	lr
    2e98:	e59d300c 	ldr	r3, [sp, #12]
    2e9c:	e2432004 	sub	r2, r3, #4
    2ea0:	e3a03000 	mov	r3, #0
    2ea4:	e2833001 	add	r3, r3, #1
    2ea8:	e1d0c0f6 	ldrsh	ip, [r0, #6]
    2eac:	e1510003 	cmp	r1, r3
    2eb0:	e5a2c004 	str	ip, [r2, #4]!
    2eb4:	1afffffa 	bne	2ea4 <_ZNK17ConnectionBuilder14ParamGenerator8Constant8GenerateEjjmmPtRN6Common6Random10MarsKiss64ERA512_l+0x14>
    2eb8:	e12fff1e 	bx	lr

00002ebc <_ZNK17ConnectionBuilder14ParamGenerator7Uniform8GenerateEjjmmPtRN6Common6Random10MarsKiss64ERA512_l>:
    2ebc:	e92d4ff0 	push	{r4, r5, r6, r7, r8, r9, sl, fp, lr}
    2ec0:	e3510000 	cmp	r1, #0
    2ec4:	e59d302c 	ldr	r3, [sp, #44]	; 0x2c
    2ec8:	08bd8ff0 	popeq	{r4, r5, r6, r7, r8, r9, sl, fp, pc}
    2ecc:	e2626010 	rsb	r6, r2, #16
    2ed0:	e59d2030 	ldr	r2, [sp, #48]	; 0x30
    2ed4:	e59f9080 	ldr	r9, [pc, #128]	; 2f5c <_ZNK17ConnectionBuilder14ParamGenerator7Uniform8GenerateEjjmmPtRN6Common6Random10MarsKiss64ERA512_l+0xa0>
    2ed8:	e59f8080 	ldr	r8, [pc, #128]	; 2f60 <_ZNK17ConnectionBuilder14ParamGenerator7Uniform8GenerateEjjmmPtRN6Common6Random10MarsKiss64ERA512_l+0xa4>
    2edc:	e59f7080 	ldr	r7, [pc, #128]	; 2f64 <_ZNK17ConnectionBuilder14ParamGenerator7Uniform8GenerateEjjmmPtRN6Common6Random10MarsKiss64ERA512_l+0xa8>
    2ee0:	e242c004 	sub	ip, r2, #4
    2ee4:	e3a02000 	mov	r2, #0
    2ee8:	e593e008 	ldr	lr, [r3, #8]
    2eec:	e593400c 	ldr	r4, [r3, #12]
    2ef0:	e593a000 	ldr	sl, [r3]
    2ef4:	e3a05000 	mov	r5, #0
    2ef8:	e0a54e97 	umlal	r4, r5, r7, lr
    2efc:	e593e004 	ldr	lr, [r3, #4]
    2f00:	e02a8a99 	mla	sl, r9, sl, r8
    2f04:	e02ee28e 	eor	lr, lr, lr, lsl #5
    2f08:	e02ee3ae 	eor	lr, lr, lr, lsr #7
    2f0c:	e02eeb0e 	eor	lr, lr, lr, lsl #22
    2f10:	e08ab004 	add	fp, sl, r4
    2f14:	e08bb00e 	add	fp, fp, lr
    2f18:	e5834008 	str	r4, [r3, #8]
    2f1c:	e583e004 	str	lr, [r3, #4]
    2f20:	e1a0482b 	lsr	r4, fp, #16
    2f24:	e583500c 	str	r5, [r3, #12]
    2f28:	e583a000 	str	sl, [r3]
    2f2c:	e590e004 	ldr	lr, [r0, #4]
    2f30:	e590b008 	ldr	fp, [r0, #8]
    2f34:	e0ca5b94 	smull	r5, sl, r4, fp
    2f38:	e1a04825 	lsr	r4, r5, #16
    2f3c:	e184480a 	orr	r4, r4, sl, lsl #16
    2f40:	e08ee004 	add	lr, lr, r4
    2f44:	e1a0e63e 	lsr	lr, lr, r6
    2f48:	e2822001 	add	r2, r2, #1
    2f4c:	e1510002 	cmp	r1, r2
    2f50:	e5ace004 	str	lr, [ip, #4]!
    2f54:	1affffe3 	bne	2ee8 <_ZNK17ConnectionBuilder14ParamGenerator7Uniform8GenerateEjjmmPtRN6Common6Random10MarsKiss64ERA512_l+0x2c>
    2f58:	e8bd8ff0 	pop	{r4, r5, r6, r7, r8, r9, sl, fp, pc}
    2f5c:	12bf507d 	.word	0x12bf507d
    2f60:	0012d687 	.word	0x0012d687
    2f64:	fffa2849 	.word	0xfffa2849

00002f68 <_ZNK17ConnectionBuilder14ParamGenerator11Exponential8GenerateEjjmmPtRN6Common6Random10MarsKiss64ERA512_l>:
    2f68:	e92d4ff0 	push	{r4, r5, r6, r7, r8, r9, sl, fp, lr}
    2f6c:	e2513000 	subs	r3, r1, #0
    2f70:	e24dd02c 	sub	sp, sp, #44	; 0x2c
    2f74:	e58d3024 	str	r3, [sp, #36]	; 0x24
    2f78:	e58d0020 	str	r0, [sp, #32]
    2f7c:	e59d305c 	ldr	r3, [sp, #92]	; 0x5c
    2f80:	0a000057 	beq	30e4 <_ZNK17ConnectionBuilder14ParamGenerator11Exponential8GenerateEjjmmPtRN6Common6Random10MarsKiss64ERA512_l+0x17c>
    2f84:	e2433004 	sub	r3, r3, #4
    2f88:	e59fe16c 	ldr	lr, [pc, #364]	; 30fc <_ZNK17ConnectionBuilder14ParamGenerator11Exponential8GenerateEjjmmPtRN6Common6Random10MarsKiss64ERA512_l+0x194>
    2f8c:	e59fa16c 	ldr	sl, [pc, #364]	; 3100 <_ZNK17ConnectionBuilder14ParamGenerator11Exponential8GenerateEjjmmPtRN6Common6Random10MarsKiss64ERA512_l+0x198>
    2f90:	e59fb16c 	ldr	fp, [pc, #364]	; 3104 <_ZNK17ConnectionBuilder14ParamGenerator11Exponential8GenerateEjjmmPtRN6Common6Random10MarsKiss64ERA512_l+0x19c>
    2f94:	e2622010 	rsb	r2, r2, #16
    2f98:	e58d3014 	str	r3, [sp, #20]
    2f9c:	e3a03000 	mov	r3, #0
    2fa0:	e58d201c 	str	r2, [sp, #28]
    2fa4:	e58d3010 	str	r3, [sp, #16]
    2fa8:	e59d3020 	ldr	r3, [sp, #32]
    2fac:	e59d2058 	ldr	r2, [sp, #88]	; 0x58
    2fb0:	e5933004 	ldr	r3, [r3, #4]
    2fb4:	e58d3018 	str	r3, [sp, #24]
    2fb8:	e59d3058 	ldr	r3, [sp, #88]	; 0x58
    2fbc:	e5920008 	ldr	r0, [r2, #8]
    2fc0:	e592200c 	ldr	r2, [r2, #12]
    2fc4:	e5936000 	ldr	r6, [r3]
    2fc8:	e5933004 	ldr	r3, [r3, #4]
    2fcc:	e3a01000 	mov	r1, #0
    2fd0:	e1a04002 	mov	r4, r2
    2fd4:	e58d1008 	str	r1, [sp, #8]
    2fd8:	e1a08004 	mov	r8, r4
    2fdc:	e3a09000 	mov	r9, #0
    2fe0:	e0a9809b 	umlal	r8, r9, fp, r0
    2fe4:	e026a69e 	mla	r6, lr, r6, sl
    2fe8:	e0233283 	eor	r3, r3, r3, lsl #5
    2fec:	e02333a3 	eor	r3, r3, r3, lsr #7
    2ff0:	e0233b03 	eor	r3, r3, r3, lsl #22
    2ff4:	e0862008 	add	r2, r6, r8
    2ff8:	e0822003 	add	r2, r2, r3
    2ffc:	e58d200c 	str	r2, [sp, #12]
    3000:	e1a0c002 	mov	ip, r2
    3004:	e1a04009 	mov	r4, r9
    3008:	e1a00008 	mov	r0, r8
    300c:	ea000007 	b	3030 <_ZNK17ConnectionBuilder14ParamGenerator11Exponential8GenerateEjjmmPtRN6Common6Random10MarsKiss64ERA512_l+0xc8>
    3010:	e1cd00d0 	ldrd	r0, [sp]
    3014:	e0900008 	adds	r0, r0, r8
    3018:	e086c000 	add	ip, r6, r0
    301c:	e08cc003 	add	ip, ip, r3
    3020:	e0a11009 	adc	r1, r1, r9
    3024:	e152000c 	cmp	r2, ip
    3028:	e1a04001 	mov	r4, r1
    302c:	9a00002e 	bls	30ec <_ZNK17ConnectionBuilder14ParamGenerator11Exponential8GenerateEjjmmPtRN6Common6Random10MarsKiss64ERA512_l+0x184>
    3030:	e3a05000 	mov	r5, #0
    3034:	e0a5409b 	umlal	r4, r5, fp, r0
    3038:	e027a69e 	mla	r7, lr, r6, sl
    303c:	e0898b94 	umull	r8, r9, r4, fp
    3040:	e3a01000 	mov	r1, #0
    3044:	e029919b 	mla	r9, fp, r1, r9
    3048:	e0231283 	eor	r1, r3, r3, lsl #5
    304c:	e02113a1 	eor	r1, r1, r1, lsr #7
    3050:	e0211b01 	eor	r1, r1, r1, lsl #22
    3054:	e0872004 	add	r2, r7, r4
    3058:	e0213281 	eor	r3, r1, r1, lsl #5
    305c:	e0822001 	add	r2, r2, r1
    3060:	e02333a3 	eor	r3, r3, r3, lsr #7
    3064:	e3a00000 	mov	r0, #0
    3068:	e152000c 	cmp	r2, ip
    306c:	e026a79e 	mla	r6, lr, r7, sl
    3070:	e0233b03 	eor	r3, r3, r3, lsl #22
    3074:	e58d5000 	str	r5, [sp]
    3078:	e58d0004 	str	r0, [sp, #4]
    307c:	9affffe3 	bls	3010 <_ZNK17ConnectionBuilder14ParamGenerator11Exponential8GenerateEjjmmPtRN6Common6Random10MarsKiss64ERA512_l+0xa8>
    3080:	e59d3008 	ldr	r3, [sp, #8]
    3084:	e59d200c 	ldr	r2, [sp, #12]
    3088:	e59d0018 	ldr	r0, [sp, #24]
    308c:	e1a08007 	mov	r8, r7
    3090:	e1a07001 	mov	r7, r1
    3094:	e08318a2 	add	r1, r3, r2, lsr #17
    3098:	e0c32091 	smull	r2, r3, r1, r0
    309c:	e59d1010 	ldr	r1, [sp, #16]
    30a0:	e1a027a2 	lsr	r2, r2, #15
    30a4:	e1822883 	orr	r2, r2, r3, lsl #17
    30a8:	e59d301c 	ldr	r3, [sp, #28]
    30ac:	e2811001 	add	r1, r1, #1
    30b0:	e1a02352 	asr	r2, r2, r3
    30b4:	e59d3024 	ldr	r3, [sp, #36]	; 0x24
    30b8:	e58d1010 	str	r1, [sp, #16]
    30bc:	e1530001 	cmp	r3, r1
    30c0:	e59d3058 	ldr	r3, [sp, #88]	; 0x58
    30c4:	e5837004 	str	r7, [r3, #4]
    30c8:	e5838000 	str	r8, [r3]
    30cc:	e583500c 	str	r5, [r3, #12]
    30d0:	e5834008 	str	r4, [r3, #8]
    30d4:	e59d3014 	ldr	r3, [sp, #20]
    30d8:	e5a32004 	str	r2, [r3, #4]!
    30dc:	e58d3014 	str	r3, [sp, #20]
    30e0:	1affffb0 	bne	2fa8 <_ZNK17ConnectionBuilder14ParamGenerator11Exponential8GenerateEjjmmPtRN6Common6Random10MarsKiss64ERA512_l+0x40>
    30e4:	e28dd02c 	add	sp, sp, #44	; 0x2c
    30e8:	e8bd8ff0 	pop	{r4, r5, r6, r7, r8, r9, sl, fp, pc}
    30ec:	e59d2008 	ldr	r2, [sp, #8]
    30f0:	e2822902 	add	r2, r2, #32768	; 0x8000
    30f4:	e58d2008 	str	r2, [sp, #8]
    30f8:	eaffffb6 	b	2fd8 <_ZNK17ConnectionBuilder14ParamGenerator11Exponential8GenerateEjjmmPtRN6Common6Random10MarsKiss64ERA512_l+0x70>
    30fc:	12bf507d 	.word	0x12bf507d
    3100:	0012d687 	.word	0x0012d687
    3104:	fffa2849 	.word	0xfffa2849

00003108 <_ZNK17ConnectionBuilder14ParamGenerator10ConvKernel8GenerateEjjmmPtRN6Common6Random10MarsKiss64ERA512_l>:
    3108:	e92d4ff0 	push	{r4, r5, r6, r7, r8, r9, sl, fp, lr}
    310c:	e24dd02c 	sub	sp, sp, #44	; 0x2c
    3110:	e1a04000 	mov	r4, r0
    3114:	e28dc028 	add	ip, sp, #40	; 0x28
    3118:	e1a03803 	lsl	r3, r3, #16
    311c:	e3a0a000 	mov	sl, #0
    3120:	e1a08001 	mov	r8, r1
    3124:	e16ca0bc 	strh	sl, [ip, #-12]!
    3128:	e1a00823 	lsr	r0, r3, #16
    312c:	e1a05002 	mov	r5, r2
    3130:	e1d410ba 	ldrh	r1, [r4, #10]
    3134:	e1a0200c 	mov	r2, ip
    3138:	eb0001a7 	bl	37dc <_ZN17ConnectionBuilder11KernelMaths5uidivEttRt>
    313c:	e158000a 	cmp	r8, sl
    3140:	e1d462b0 	ldrh	r6, [r4, #32]
    3144:	e1d472b2 	ldrh	r7, [r4, #34]	; 0x22
    3148:	0a000057 	beq	32ac <_ZNK17ConnectionBuilder14ParamGenerator10ConvKernel8GenerateEjjmmPtRN6Common6Random10MarsKiss64ERA512_l+0x1a4>
    314c:	e59d2050 	ldr	r2, [sp, #80]	; 0x50
    3150:	e2651010 	rsb	r1, r5, #16
    3154:	e1a02802 	lsl	r2, r2, #16
    3158:	e1a02822 	lsr	r2, r2, #16
    315c:	e1a0300a 	mov	r3, sl
    3160:	e1a0500a 	mov	r5, sl
    3164:	e1a09000 	mov	r9, r0
    3168:	e1a060a6 	lsr	r6, r6, #1
    316c:	e1a070a7 	lsr	r7, r7, #1
    3170:	e58d1014 	str	r1, [sp, #20]
    3174:	e58d2010 	str	r2, [sp, #16]
    3178:	e3a0a002 	mov	sl, #2
    317c:	ea00000f 	b	31c0 <_ZNK17ConnectionBuilder14ParamGenerator10ConvKernel8GenerateEjjmmPtRN6Common6Random10MarsKiss64ERA512_l+0xb8>
    3180:	e1d4b2b0 	ldrh	fp, [r4, #32]
    3184:	e15e000b 	cmp	lr, fp
    3188:	e02cec9b 	mla	ip, fp, ip, lr
    318c:	aa000044 	bge	32a4 <_ZNK17ConnectionBuilder14ParamGenerator10ConvKernel8GenerateEjjmmPtRN6Common6Random10MarsKiss64ERA512_l+0x19c>
    3190:	e5943024 	ldr	r3, [r4, #36]	; 0x24
    3194:	e59d2014 	ldr	r2, [sp, #20]
    3198:	e793310c 	ldr	r3, [r3, ip, lsl #2]
    319c:	e1a03253 	asr	r3, r3, r2
    31a0:	e59d205c 	ldr	r2, [sp, #92]	; 0x5c
    31a4:	e7823105 	str	r3, [r2, r5, lsl #2]
    31a8:	e2855001 	add	r5, r5, #1
    31ac:	e1a05805 	lsl	r5, r5, #16
    31b0:	e1a05825 	lsr	r5, r5, #16
    31b4:	e1550008 	cmp	r5, r8
    31b8:	e1a03005 	mov	r3, r5
    31bc:	2a00003a 	bcs	32ac <_ZNK17ConnectionBuilder14ParamGenerator10ConvKernel8GenerateEjjmmPtRN6Common6Random10MarsKiss64ERA512_l+0x1a4>
    31c0:	e59d2054 	ldr	r2, [sp, #84]	; 0x54
    31c4:	e1a03083 	lsl	r3, r3, #1
    31c8:	e19200b3 	ldrh	r0, [r2, r3]
    31cc:	e59d3010 	ldr	r3, [sp, #16]
    31d0:	e28d201e 	add	r2, sp, #30
    31d4:	e0830000 	add	r0, r3, r0
    31d8:	e1a00800 	lsl	r0, r0, #16
    31dc:	e1d410be 	ldrh	r1, [r4, #14]
    31e0:	e1a00820 	lsr	r0, r0, #16
    31e4:	eb00017c 	bl	37dc <_ZN17ConnectionBuilder11KernelMaths5uidivEttRt>
    31e8:	e28db022 	add	fp, sp, #34	; 0x22
    31ec:	e1d4e1bc 	ldrh	lr, [r4, #28]
    31f0:	e1d4c1be 	ldrh	ip, [r4, #30]
    31f4:	e1d431b6 	ldrh	r3, [r4, #22]
    31f8:	e1d421b4 	ldrh	r2, [r4, #20]
    31fc:	e58db00c 	str	fp, [sp, #12]
    3200:	e28db020 	add	fp, sp, #32
    3204:	e88d5000 	stm	sp, {ip, lr}
    3208:	e1dd11be 	ldrh	r1, [sp, #30]
    320c:	e58db008 	str	fp, [sp, #8]
    3210:	eb000188 	bl	3838 <_ZN17ConnectionBuilder11KernelMaths17post_in_pre_worldEttttttRtS1_>
    3214:	e1d431b0 	ldrh	r3, [r4, #16]
    3218:	e1d4e1b8 	ldrh	lr, [r4, #24]
    321c:	e1d4c1ba 	ldrh	ip, [r4, #26]
    3220:	e28d2026 	add	r2, sp, #38	; 0x26
    3224:	e58d200c 	str	r2, [sp, #12]
    3228:	e28d2024 	add	r2, sp, #36	; 0x24
    322c:	e88d5000 	stm	sp, {ip, lr}
    3230:	e1dd12b2 	ldrh	r1, [sp, #34]	; 0x22
    3234:	e1dd02b0 	ldrh	r0, [sp, #32]
    3238:	e58d2008 	str	r2, [sp, #8]
    323c:	e1a02003 	mov	r2, r3
    3240:	eb000186 	bl	3860 <_ZN17ConnectionBuilder11KernelMaths17pre_in_post_worldEttttttRsS1_>
    3244:	e1dd31bc 	ldrh	r3, [sp, #28]
    3248:	e1ddc2b4 	ldrh	ip, [sp, #36]	; 0x24
    324c:	e1dde2b6 	ldrh	lr, [sp, #38]	; 0x26
    3250:	e04cc009 	sub	ip, ip, r9
    3254:	e04ee003 	sub	lr, lr, r3
    3258:	e047c00c 	sub	ip, r7, ip
    325c:	e046e00e 	sub	lr, r6, lr
    3260:	e1a0c80c 	lsl	ip, ip, #16
    3264:	e1a0e80e 	lsl	lr, lr, #16
    3268:	e1b0c84c 	asrs	ip, ip, #16
    326c:	e1a0e84e 	asr	lr, lr, #16
    3270:	e59f103c 	ldr	r1, [pc, #60]	; 32b4 <_ZNK17ConnectionBuilder14ParamGenerator10ConvKernel8GenerateEjjmmPtRN6Common6Random10MarsKiss64ERA512_l+0x1ac>
    3274:	e1a0000a 	mov	r0, sl
    3278:	e1a0200c 	mov	r2, ip
    327c:	e1a0300e 	mov	r3, lr
    3280:	4a000007 	bmi	32a4 <_ZNK17ConnectionBuilder14ParamGenerator10ConvKernel8GenerateEjjmmPtRN6Common6Random10MarsKiss64ERA512_l+0x19c>
    3284:	e1d4b2b2 	ldrh	fp, [r4, #34]	; 0x22
    3288:	e15c000b 	cmp	ip, fp
    328c:	b3a0b001 	movlt	fp, #1
    3290:	a3a0b000 	movge	fp, #0
    3294:	e35e0000 	cmp	lr, #0
    3298:	b3a0b000 	movlt	fp, #0
    329c:	e35b0000 	cmp	fp, #0
    32a0:	1affffb6 	bne	3180 <_ZNK17ConnectionBuilder14ParamGenerator10ConvKernel8GenerateEjjmmPtRN6Common6Random10MarsKiss64ERA512_l+0x78>
    32a4:	fa0004fa 	blx	4694 <io_printf>
    32a8:	eaffffbe 	b	31a8 <_ZNK17ConnectionBuilder14ParamGenerator10ConvKernel8GenerateEjjmmPtRN6Common6Random10MarsKiss64ERA512_l+0xa0>
    32ac:	e28dd02c 	add	sp, sp, #44	; 0x2c
    32b0:	e8bd8ff0 	pop	{r4, r5, r6, r7, r8, r9, sl, fp, pc}
    32b4:	00005e1c 	.word	0x00005e1c

000032b8 <_ZNK17ConnectionBuilder14ParamGenerator6Normal8GenerateEjjmmPtRN6Common6Random10MarsKiss64ERA512_l>:
    32b8:	e92d4ff0 	push	{r4, r5, r6, r7, r8, r9, sl, fp, lr}
    32bc:	e2516000 	subs	r6, r1, #0
    32c0:	e24dd00c 	sub	sp, sp, #12
    32c4:	e59d4038 	ldr	r4, [sp, #56]	; 0x38
    32c8:	0a000025 	beq	3364 <_ZNK17ConnectionBuilder14ParamGenerator6Normal8GenerateEjjmmPtRN6Common6Random10MarsKiss64ERA512_l+0xac>
    32cc:	e2623010 	rsb	r3, r2, #16
    32d0:	e58d3004 	str	r3, [sp, #4]
    32d4:	e59d303c 	ldr	r3, [sp, #60]	; 0x3c
    32d8:	e1a05000 	mov	r5, r0
    32dc:	e243b004 	sub	fp, r3, #4
    32e0:	e3a0a000 	mov	sl, #0
    32e4:	e5940008 	ldr	r0, [r4, #8]
    32e8:	e594200c 	ldr	r2, [r4, #12]
    32ec:	e59f1078 	ldr	r1, [pc, #120]	; 336c <_ZNK17ConnectionBuilder14ParamGenerator6Normal8GenerateEjjmmPtRN6Common6Random10MarsKiss64ERA512_l+0xb4>
    32f0:	e3a03000 	mov	r3, #0
    32f4:	e0a32091 	umlal	r2, r3, r1, r0
    32f8:	e594c000 	ldr	ip, [r4]
    32fc:	e59f006c 	ldr	r0, [pc, #108]	; 3370 <_ZNK17ConnectionBuilder14ParamGenerator6Normal8GenerateEjjmmPtRN6Common6Random10MarsKiss64ERA512_l+0xb8>
    3300:	e59f106c 	ldr	r1, [pc, #108]	; 3374 <_ZNK17ConnectionBuilder14ParamGenerator6Normal8GenerateEjjmmPtRN6Common6Random10MarsKiss64ERA512_l+0xbc>
    3304:	e594e004 	ldr	lr, [r4, #4]
    3308:	e021019c 	mla	r1, ip, r1, r0
    330c:	e02ee28e 	eor	lr, lr, lr, lsl #5
    3310:	e02ee3ae 	eor	lr, lr, lr, lsr #7
    3314:	e02eeb0e 	eor	lr, lr, lr, lsl #22
    3318:	e0810002 	add	r0, r1, r2
    331c:	e584300c 	str	r3, [r4, #12]
    3320:	e5842008 	str	r2, [r4, #8]
    3324:	e5841000 	str	r1, [r4]
    3328:	e080000e 	add	r0, r0, lr
    332c:	e584e004 	str	lr, [r4, #4]
    3330:	e5957004 	ldr	r7, [r5, #4]
    3334:	eb0001bb 	bl	3a28 <_ZN6Common5Maths10NormalU032Em>
    3338:	e5952008 	ldr	r2, [r5, #8]
    333c:	e28aa001 	add	sl, sl, #1
    3340:	e156000a 	cmp	r6, sl
    3344:	e0c98290 	smull	r8, r9, r0, r2
    3348:	e1a027a8 	lsr	r2, r8, #15
    334c:	e1822889 	orr	r2, r2, r9, lsl #17
    3350:	e0873002 	add	r3, r7, r2
    3354:	e59d2004 	ldr	r2, [sp, #4]
    3358:	e1a03253 	asr	r3, r3, r2
    335c:	e5ab3004 	str	r3, [fp, #4]!
    3360:	1affffdf 	bne	32e4 <_ZNK17ConnectionBuilder14ParamGenerator6Normal8GenerateEjjmmPtRN6Common6Random10MarsKiss64ERA512_l+0x2c>
    3364:	e28dd00c 	add	sp, sp, #12
    3368:	e8bd8ff0 	pop	{r4, r5, r6, r7, r8, r9, sl, fp, pc}
    336c:	fffa2849 	.word	0xfffa2849
    3370:	0012d687 	.word	0x0012d687
    3374:	12bf507d 	.word	0x12bf507d

00003378 <_ZNK17ConnectionBuilder14ParamGenerator13NormalClipped8GenerateEjjmmPtRN6Common6Random10MarsKiss64ERA512_l>:
    3378:	e92d4ff0 	push	{r4, r5, r6, r7, r8, r9, sl, fp, lr}
    337c:	e3510000 	cmp	r1, #0
    3380:	e24dd014 	sub	sp, sp, #20
    3384:	e59d8040 	ldr	r8, [sp, #64]	; 0x40
    3388:	e59d3044 	ldr	r3, [sp, #68]	; 0x44
    338c:	0a00002e 	beq	344c <_ZNK17ConnectionBuilder14ParamGenerator13NormalClipped8GenerateEjjmmPtRN6Common6Random10MarsKiss64ERA512_l+0xd4>
    3390:	e2433004 	sub	r3, r3, #4
    3394:	e59f50b8 	ldr	r5, [pc, #184]	; 3454 <_ZNK17ConnectionBuilder14ParamGenerator13NormalClipped8GenerateEjjmmPtRN6Common6Random10MarsKiss64ERA512_l+0xdc>
    3398:	e59f40b8 	ldr	r4, [pc, #184]	; 3458 <_ZNK17ConnectionBuilder14ParamGenerator13NormalClipped8GenerateEjjmmPtRN6Common6Random10MarsKiss64ERA512_l+0xe0>
    339c:	e58d3008 	str	r3, [sp, #8]
    33a0:	e1a09000 	mov	r9, r0
    33a4:	e3a03000 	mov	r3, #0
    33a8:	e58d100c 	str	r1, [sp, #12]
    33ac:	e58d3004 	str	r3, [sp, #4]
    33b0:	e5983008 	ldr	r3, [r8, #8]
    33b4:	e598a00c 	ldr	sl, [r8, #12]
    33b8:	e598c000 	ldr	ip, [r8]
    33bc:	e3a0b000 	mov	fp, #0
    33c0:	e59f2094 	ldr	r2, [pc, #148]	; 345c <_ZNK17ConnectionBuilder14ParamGenerator13NormalClipped8GenerateEjjmmPtRN6Common6Random10MarsKiss64ERA512_l+0xe4>
    33c4:	e0aba394 	umlal	sl, fp, r4, r3
    33c8:	e5983004 	ldr	r3, [r8, #4]
    33cc:	e022529c 	mla	r2, ip, r2, r5
    33d0:	e0233283 	eor	r3, r3, r3, lsl #5
    33d4:	e02333a3 	eor	r3, r3, r3, lsr #7
    33d8:	e0233b03 	eor	r3, r3, r3, lsl #22
    33dc:	e082000a 	add	r0, r2, sl
    33e0:	e588a008 	str	sl, [r8, #8]
    33e4:	e0800003 	add	r0, r0, r3
    33e8:	e5883004 	str	r3, [r8, #4]
    33ec:	e588b00c 	str	fp, [r8, #12]
    33f0:	e5882000 	str	r2, [r8]
    33f4:	e599a004 	ldr	sl, [r9, #4]
    33f8:	eb00018a 	bl	3a28 <_ZN6Common5Maths10NormalU032Em>
    33fc:	e5993008 	ldr	r3, [r9, #8]
    3400:	e599c010 	ldr	ip, [r9, #16]
    3404:	e0c76390 	smull	r6, r7, r0, r3
    3408:	e1a037a6 	lsr	r3, r6, #15
    340c:	e1833887 	orr	r3, r3, r7, lsl #17
    3410:	e08a3003 	add	r3, sl, r3
    3414:	e153000c 	cmp	r3, ip
    3418:	caffffe4 	bgt	33b0 <_ZNK17ConnectionBuilder14ParamGenerator13NormalClipped8GenerateEjjmmPtRN6Common6Random10MarsKiss64ERA512_l+0x38>
    341c:	e599000c 	ldr	r0, [r9, #12]
    3420:	e1530000 	cmp	r3, r0
    3424:	baffffe1 	blt	33b0 <_ZNK17ConnectionBuilder14ParamGenerator13NormalClipped8GenerateEjjmmPtRN6Common6Random10MarsKiss64ERA512_l+0x38>
    3428:	e59d2004 	ldr	r2, [sp, #4]
    342c:	e2821001 	add	r1, r2, #1
    3430:	e59d200c 	ldr	r2, [sp, #12]
    3434:	e58d1004 	str	r1, [sp, #4]
    3438:	e1520001 	cmp	r2, r1
    343c:	e59d2008 	ldr	r2, [sp, #8]
    3440:	e5a23004 	str	r3, [r2, #4]!
    3444:	e58d2008 	str	r2, [sp, #8]
    3448:	1affffd8 	bne	33b0 <_ZNK17ConnectionBuilder14ParamGenerator13NormalClipped8GenerateEjjmmPtRN6Common6Random10MarsKiss64ERA512_l+0x38>
    344c:	e28dd014 	add	sp, sp, #20
    3450:	e8bd8ff0 	pop	{r4, r5, r6, r7, r8, r9, sl, fp, pc}
    3454:	0012d687 	.word	0x0012d687
    3458:	fffa2849 	.word	0xfffa2849
    345c:	12bf507d 	.word	0x12bf507d

00003460 <_ZNK17ConnectionBuilder14ParamGenerator23NormalClippedToBoundary8GenerateEjjmmPtRN6Common6Random10MarsKiss64ERA512_l>:
    3460:	e92d4ff0 	push	{r4, r5, r6, r7, r8, r9, sl, fp, lr}
    3464:	e2518000 	subs	r8, r1, #0
    3468:	e24dd00c 	sub	sp, sp, #12
    346c:	e59d4038 	ldr	r4, [sp, #56]	; 0x38
    3470:	0a000029 	beq	351c <_ZNK17ConnectionBuilder14ParamGenerator23NormalClippedToBoundary8GenerateEjjmmPtRN6Common6Random10MarsKiss64ERA512_l+0xbc>
    3474:	e59d303c 	ldr	r3, [sp, #60]	; 0x3c
    3478:	e59fb0a4 	ldr	fp, [pc, #164]	; 3524 <_ZNK17ConnectionBuilder14ParamGenerator23NormalClippedToBoundary8GenerateEjjmmPtRN6Common6Random10MarsKiss64ERA512_l+0xc4>
    347c:	e59fa0a4 	ldr	sl, [pc, #164]	; 3528 <_ZNK17ConnectionBuilder14ParamGenerator23NormalClippedToBoundary8GenerateEjjmmPtRN6Common6Random10MarsKiss64ERA512_l+0xc8>
    3480:	e1a06000 	mov	r6, r0
    3484:	e2439004 	sub	r9, r3, #4
    3488:	e3a07000 	mov	r7, #0
    348c:	e5942008 	ldr	r2, [r4, #8]
    3490:	e594000c 	ldr	r0, [r4, #12]
    3494:	e59f3090 	ldr	r3, [pc, #144]	; 352c <_ZNK17ConnectionBuilder14ParamGenerator23NormalClippedToBoundary8GenerateEjjmmPtRN6Common6Random10MarsKiss64ERA512_l+0xcc>
    3498:	e594c000 	ldr	ip, [r4]
    349c:	e3a01000 	mov	r1, #0
    34a0:	e0a10293 	umlal	r0, r1, r3, r2
    34a4:	e5942004 	ldr	r2, [r4, #4]
    34a8:	e02cac9b 	mla	ip, fp, ip, sl
    34ac:	e0222282 	eor	r2, r2, r2, lsl #5
    34b0:	e02223a2 	eor	r2, r2, r2, lsr #7
    34b4:	e08ce000 	add	lr, ip, r0
    34b8:	e0222b02 	eor	r2, r2, r2, lsl #22
    34bc:	e5840008 	str	r0, [r4, #8]
    34c0:	e584c000 	str	ip, [r4]
    34c4:	e08e0002 	add	r0, lr, r2
    34c8:	e5842004 	str	r2, [r4, #4]
    34cc:	e584100c 	str	r1, [r4, #12]
    34d0:	e5965004 	ldr	r5, [r6, #4]
    34d4:	eb000153 	bl	3a28 <_ZN6Common5Maths10NormalU032Em>
    34d8:	e596c008 	ldr	ip, [r6, #8]
    34dc:	e596200c 	ldr	r2, [r6, #12]
    34e0:	e58d2004 	str	r2, [sp, #4]
    34e4:	e596e010 	ldr	lr, [r6, #16]
    34e8:	e2877001 	add	r7, r7, #1
    34ec:	e0c32c90 	smull	r2, r3, r0, ip
    34f0:	e1a007a2 	lsr	r0, r2, #15
    34f4:	e1800883 	orr	r0, r0, r3, lsl #17
    34f8:	e59d2004 	ldr	r2, [sp, #4]
    34fc:	e0855000 	add	r5, r5, r0
    3500:	e1550002 	cmp	r5, r2
    3504:	a1a02005 	movge	r2, r5
    3508:	e15e0002 	cmp	lr, r2
    350c:	b1a0200e 	movlt	r2, lr
    3510:	e1580007 	cmp	r8, r7
    3514:	e5a92004 	str	r2, [r9, #4]!
    3518:	1affffdb 	bne	348c <_ZNK17ConnectionBuilder14ParamGenerator23NormalClippedToBoundary8GenerateEjjmmPtRN6Common6Random10MarsKiss64ERA512_l+0x2c>
    351c:	e28dd00c 	add	sp, sp, #12
    3520:	e8bd8ff0 	pop	{r4, r5, r6, r7, r8, r9, sl, fp, pc}
    3524:	12bf507d 	.word	0x12bf507d
    3528:	0012d687 	.word	0x0012d687
    352c:	fffa2849 	.word	0xfffa2849

00003530 <_ZN17ConnectionBuilder14ParamGenerator10ConvKernelC1ERPm>:
    3530:	e5913000 	ldr	r3, [r1]
    3534:	e92d47f0 	push	{r4, r5, r6, r7, r8, r9, sl, lr}
    3538:	e1a04000 	mov	r4, r0
    353c:	e2830014 	add	r0, r3, #20
    3540:	e1a05001 	mov	r5, r1
    3544:	e8900007 	ldm	r0, {r0, r1, r2}
    3548:	e5939000 	ldr	r9, [r3]
    354c:	e59f8070 	ldr	r8, [pc, #112]	; 35c4 <_ZN17ConnectionBuilder14ParamGenerator10ConvKernelC1ERPm+0x94>
    3550:	e5937004 	ldr	r7, [r3, #4]
    3554:	e5936008 	ldr	r6, [r3, #8]
    3558:	e593e00c 	ldr	lr, [r3, #12]
    355c:	e593c010 	ldr	ip, [r3, #16]
    3560:	e1a02862 	ror	r2, r2, #16
    3564:	e2833020 	add	r3, r3, #32
    3568:	e1a00860 	ror	r0, r0, #16
    356c:	e1a01861 	ror	r1, r1, #16
    3570:	e5840018 	str	r0, [r4, #24]
    3574:	e584101c 	str	r1, [r4, #28]
    3578:	e5842020 	str	r2, [r4, #32]
    357c:	e8840300 	stm	r4, {r8, r9}
    3580:	e5847008 	str	r7, [r4, #8]
    3584:	e584600c 	str	r6, [r4, #12]
    3588:	e584e010 	str	lr, [r4, #16]
    358c:	e584c014 	str	ip, [r4, #20]
    3590:	e59f1030 	ldr	r1, [pc, #48]	; 35c8 <_ZN17ConnectionBuilder14ParamGenerator10ConvKernelC1ERPm+0x98>
    3594:	e5853000 	str	r3, [r5]
    3598:	e3a00002 	mov	r0, #2
    359c:	fa00043c 	blx	4694 <io_printf>
    35a0:	e1d422b2 	ldrh	r2, [r4, #34]	; 0x22
    35a4:	e1d412b0 	ldrh	r1, [r4, #32]
    35a8:	e5953000 	ldr	r3, [r5]
    35ac:	e0020291 	mul	r2, r1, r2
    35b0:	e5843024 	str	r3, [r4, #36]	; 0x24
    35b4:	e0833102 	add	r3, r3, r2, lsl #2
    35b8:	e5853000 	str	r3, [r5]
    35bc:	e1a00004 	mov	r0, r4
    35c0:	e8bd87f0 	pop	{r4, r5, r6, r7, r8, r9, sl, pc}
    35c4:	00005dd0 	.word	0x00005dd0
    35c8:	00005e58 	.word	0x00005e58

000035cc <_ZN17ConnectionBuilder14ParamGenerator8ConstantC1ERPm>:
    35cc:	e5913000 	ldr	r3, [r1]
    35d0:	e92d4010 	push	{r4, lr}
    35d4:	e1a04000 	mov	r4, r0
    35d8:	e5930000 	ldr	r0, [r3]
    35dc:	e59f2024 	ldr	r2, [pc, #36]	; 3608 <_ZN17ConnectionBuilder14ParamGenerator8ConstantC1ERPm+0x3c>
    35e0:	e2833004 	add	r3, r3, #4
    35e4:	e5842000 	str	r2, [r4]
    35e8:	e5813000 	str	r3, [r1]
    35ec:	e1a02000 	mov	r2, r0
    35f0:	e5840004 	str	r0, [r4, #4]
    35f4:	e59f1010 	ldr	r1, [pc, #16]	; 360c <_ZN17ConnectionBuilder14ParamGenerator8ConstantC1ERPm+0x40>
    35f8:	e3a00002 	mov	r0, #2
    35fc:	fa000424 	blx	4694 <io_printf>
    3600:	e1a00004 	mov	r0, r4
    3604:	e8bd8010 	pop	{r4, pc}
    3608:	00005ddc 	.word	0x00005ddc
    360c:	00005e80 	.word	0x00005e80

00003610 <_ZN17ConnectionBuilder14ParamGenerator7UniformC1ERPm>:
    3610:	e5913000 	ldr	r3, [r1]
    3614:	e92d4010 	push	{r4, lr}
    3618:	e1a04000 	mov	r4, r0
    361c:	e1a00003 	mov	r0, r3
    3620:	e4902008 	ldr	r2, [r0], #8
    3624:	e5842004 	str	r2, [r4, #4]
    3628:	e5933004 	ldr	r3, [r3, #4]
    362c:	e24dd008 	sub	sp, sp, #8
    3630:	e043c002 	sub	ip, r3, r2
    3634:	e59fe024 	ldr	lr, [pc, #36]	; 3660 <_ZN17ConnectionBuilder14ParamGenerator7UniformC1ERPm+0x50>
    3638:	e584e000 	str	lr, [r4]
    363c:	e58dc000 	str	ip, [sp]
    3640:	e5810000 	str	r0, [r1]
    3644:	e584c008 	str	ip, [r4, #8]
    3648:	e59f1014 	ldr	r1, [pc, #20]	; 3664 <_ZN17ConnectionBuilder14ParamGenerator7UniformC1ERPm+0x54>
    364c:	e3a00002 	mov	r0, #2
    3650:	fa00040f 	blx	4694 <io_printf>
    3654:	e1a00004 	mov	r0, r4
    3658:	e28dd008 	add	sp, sp, #8
    365c:	e8bd8010 	pop	{r4, pc}
    3660:	00005de8 	.word	0x00005de8
    3664:	00005eb4 	.word	0x00005eb4

00003668 <_ZN17ConnectionBuilder14ParamGenerator6NormalC1ERPm>:
    3668:	e5913000 	ldr	r3, [r1]
    366c:	e92d4010 	push	{r4, lr}
    3670:	e1a04000 	mov	r4, r0
    3674:	e1a00003 	mov	r0, r3
    3678:	e4902008 	ldr	r2, [r0], #8
    367c:	e5842004 	str	r2, [r4, #4]
    3680:	e593c004 	ldr	ip, [r3, #4]
    3684:	e59f3020 	ldr	r3, [pc, #32]	; 36ac <_ZN17ConnectionBuilder14ParamGenerator6NormalC1ERPm+0x44>
    3688:	e5843000 	str	r3, [r4]
    368c:	e5810000 	str	r0, [r1]
    3690:	e1a0300c 	mov	r3, ip
    3694:	e584c008 	str	ip, [r4, #8]
    3698:	e59f1010 	ldr	r1, [pc, #16]	; 36b0 <_ZN17ConnectionBuilder14ParamGenerator6NormalC1ERPm+0x48>
    369c:	e3a00002 	mov	r0, #2
    36a0:	fa0003fb 	blx	4694 <io_printf>
    36a4:	e1a00004 	mov	r0, r4
    36a8:	e8bd8010 	pop	{r4, pc}
    36ac:	00005df4 	.word	0x00005df4
    36b0:	00005ef8 	.word	0x00005ef8

000036b4 <_ZN17ConnectionBuilder14ParamGenerator13NormalClippedC1ERPm>:
    36b4:	e591c000 	ldr	ip, [r1]
    36b8:	e92d4030 	push	{r4, r5, lr}
    36bc:	e59c2000 	ldr	r2, [ip]
    36c0:	e5802004 	str	r2, [r0, #4]
    36c4:	e59c3004 	ldr	r3, [ip, #4]
    36c8:	e5803008 	str	r3, [r0, #8]
    36cc:	e1a04000 	mov	r4, r0
    36d0:	e59ce008 	ldr	lr, [ip, #8]
    36d4:	e59c000c 	ldr	r0, [ip, #12]
    36d8:	e59f5048 	ldr	r5, [pc, #72]	; 3728 <_ZN17ConnectionBuilder14ParamGenerator13NormalClippedC1ERPm+0x74>
    36dc:	e15e0000 	cmp	lr, r0
    36e0:	e28cc010 	add	ip, ip, #16
    36e4:	e5845000 	str	r5, [r4]
    36e8:	e581c000 	str	ip, [r1]
    36ec:	c1a01000 	movgt	r1, r0
    36f0:	c584000c 	strgt	r0, [r4, #12]
    36f4:	e24dd00c 	sub	sp, sp, #12
    36f8:	c1a0000e 	movgt	r0, lr
    36fc:	c1a0e001 	movgt	lr, r1
    3700:	e5840010 	str	r0, [r4, #16]
    3704:	d584e00c 	strle	lr, [r4, #12]
    3708:	e59f101c 	ldr	r1, [pc, #28]	; 372c <_ZN17ConnectionBuilder14ParamGenerator13NormalClippedC1ERPm+0x78>
    370c:	e58d0004 	str	r0, [sp, #4]
    3710:	e58de000 	str	lr, [sp]
    3714:	e3a00002 	mov	r0, #2
    3718:	fa0003dd 	blx	4694 <io_printf>
    371c:	e1a00004 	mov	r0, r4
    3720:	e28dd00c 	add	sp, sp, #12
    3724:	e8bd8030 	pop	{r4, r5, pc}
    3728:	00005e00 	.word	0x00005e00
    372c:	00005f30 	.word	0x00005f30

00003730 <_ZN17ConnectionBuilder14ParamGenerator23NormalClippedToBoundaryC1ERPm>:
    3730:	e591c000 	ldr	ip, [r1]
    3734:	e92d4030 	push	{r4, r5, lr}
    3738:	e59c2000 	ldr	r2, [ip]
    373c:	e5802004 	str	r2, [r0, #4]
    3740:	e59c3004 	ldr	r3, [ip, #4]
    3744:	e5803008 	str	r3, [r0, #8]
    3748:	e1a04000 	mov	r4, r0
    374c:	e59c0008 	ldr	r0, [ip, #8]
    3750:	e584000c 	str	r0, [r4, #12]
    3754:	e24dd00c 	sub	sp, sp, #12
    3758:	e28ce010 	add	lr, ip, #16
    375c:	e59f502c 	ldr	r5, [pc, #44]	; 3790 <_ZN17ConnectionBuilder14ParamGenerator23NormalClippedToBoundaryC1ERPm+0x60>
    3760:	e59cc00c 	ldr	ip, [ip, #12]
    3764:	e5845000 	str	r5, [r4]
    3768:	e581e000 	str	lr, [r1]
    376c:	e58dc004 	str	ip, [sp, #4]
    3770:	e59f101c 	ldr	r1, [pc, #28]	; 3794 <_ZN17ConnectionBuilder14ParamGenerator23NormalClippedToBoundaryC1ERPm+0x64>
    3774:	e584c010 	str	ip, [r4, #16]
    3778:	e58d0000 	str	r0, [sp]
    377c:	e3a00002 	mov	r0, #2
    3780:	fa0003c3 	blx	4694 <io_printf>
    3784:	e1a00004 	mov	r0, r4
    3788:	e28dd00c 	add	sp, sp, #12
    378c:	e8bd8030 	pop	{r4, r5, pc}
    3790:	00005e0c 	.word	0x00005e0c
    3794:	00005f80 	.word	0x00005f80

00003798 <_ZN17ConnectionBuilder14ParamGenerator11ExponentialC1ERPm>:
    3798:	e5913000 	ldr	r3, [r1]
    379c:	e92d4010 	push	{r4, lr}
    37a0:	e1a04000 	mov	r4, r0
    37a4:	e5930000 	ldr	r0, [r3]
    37a8:	e59f2024 	ldr	r2, [pc, #36]	; 37d4 <_ZN17ConnectionBuilder14ParamGenerator11ExponentialC1ERPm+0x3c>
    37ac:	e2833004 	add	r3, r3, #4
    37b0:	e5842000 	str	r2, [r4]
    37b4:	e5813000 	str	r3, [r1]
    37b8:	e1a02000 	mov	r2, r0
    37bc:	e5840004 	str	r0, [r4, #4]
    37c0:	e59f1010 	ldr	r1, [pc, #16]	; 37d8 <_ZN17ConnectionBuilder14ParamGenerator11ExponentialC1ERPm+0x40>
    37c4:	e3a00002 	mov	r0, #2
    37c8:	fa0003b1 	blx	4694 <io_printf>
    37cc:	e1a00004 	mov	r0, r4
    37d0:	e8bd8010 	pop	{r4, pc}
    37d4:	00005e18 	.word	0x00005e18
    37d8:	00005ff8 	.word	0x00005ff8

000037dc <_ZN17ConnectionBuilder11KernelMaths5uidivEttRt>:
    37dc:	e3500000 	cmp	r0, #0
    37e0:	0a000011 	beq	382c <_ZN17ConnectionBuilder11KernelMaths5uidivEttRt+0x50>
    37e4:	e1500001 	cmp	r0, r1
    37e8:	ba00000f 	blt	382c <_ZN17ConnectionBuilder11KernelMaths5uidivEttRt+0x50>
    37ec:	e040c001 	sub	ip, r0, r1
    37f0:	e1a0c80c 	lsl	ip, ip, #16
    37f4:	e1a0c82c 	lsr	ip, ip, #16
    37f8:	e3a00000 	mov	r0, #0
    37fc:	ea000000 	b	3804 <_ZN17ConnectionBuilder11KernelMaths5uidivEttRt+0x28>
    3800:	e1a0c003 	mov	ip, r3
    3804:	e2800001 	add	r0, r0, #1
    3808:	e04c3001 	sub	r3, ip, r1
    380c:	e1a00800 	lsl	r0, r0, #16
    3810:	e1a03803 	lsl	r3, r3, #16
    3814:	e151000c 	cmp	r1, ip
    3818:	e1a00820 	lsr	r0, r0, #16
    381c:	e1a03823 	lsr	r3, r3, #16
    3820:	dafffff6 	ble	3800 <_ZN17ConnectionBuilder11KernelMaths5uidivEttRt+0x24>
    3824:	e1c2c0b0 	strh	ip, [r2]
    3828:	e12fff1e 	bx	lr
    382c:	e1c200b0 	strh	r0, [r2]
    3830:	e3a00000 	mov	r0, #0
    3834:	e12fff1e 	bx	lr

00003838 <_ZN17ConnectionBuilder11KernelMaths17post_in_pre_worldEttttttRtS1_>:
    3838:	e52de004 	push	{lr}		; (str lr, [sp, #-4]!)
    383c:	e1dde0b4 	ldrh	lr, [sp, #4]
    3840:	e1ddc0b8 	ldrh	ip, [sp, #8]
    3844:	e1022e80 	smlabb	r2, r0, lr, r2
    3848:	e1033c81 	smlabb	r3, r1, ip, r3
    384c:	e59d000c 	ldr	r0, [sp, #12]
    3850:	e59d1010 	ldr	r1, [sp, #16]
    3854:	e1c020b0 	strh	r2, [r0]
    3858:	e1c130b0 	strh	r3, [r1]
    385c:	e49df004 	pop	{pc}		; (ldr pc, [sp], #4)

00003860 <_ZN17ConnectionBuilder11KernelMaths17pre_in_post_worldEttttttRsS1_>:
    3860:	e0402002 	sub	r2, r0, r2
    3864:	e1a02802 	lsl	r2, r2, #16
    3868:	e242c801 	sub	ip, r2, #65536	; 0x10000
    386c:	e1a0084c 	asr	r0, ip, #16
    3870:	e92d4070 	push	{r4, r5, r6, lr}
    3874:	e3500000 	cmp	r0, #0
    3878:	e1a0e822 	lsr	lr, r2, #16
    387c:	e1dd41b0 	ldrh	r4, [sp, #16]
    3880:	e1a0282c 	lsr	r2, ip, #16
    3884:	e1dd01b4 	ldrh	r0, [sp, #20]
    3888:	e59d5018 	ldr	r5, [sp, #24]
    388c:	e59dc01c 	ldr	ip, [sp, #28]
    3890:	0a00001a 	beq	3900 <_ZN17ConnectionBuilder11KernelMaths17pre_in_post_worldEttttttRsS1_+0xa0>
    3894:	ba000012 	blt	38e4 <_ZN17ConnectionBuilder11KernelMaths17pre_in_post_worldEttttttRsS1_+0x84>
    3898:	e3520000 	cmp	r2, #0
    389c:	0a000039 	beq	3988 <_ZN17ConnectionBuilder11KernelMaths17pre_in_post_worldEttttttRsS1_+0x128>
    38a0:	e1520004 	cmp	r2, r4
    38a4:	a3a06000 	movge	r6, #0
    38a8:	aa000001 	bge	38b4 <_ZN17ConnectionBuilder11KernelMaths17pre_in_post_worldEttttttRsS1_+0x54>
    38ac:	ea000035 	b	3988 <_ZN17ConnectionBuilder11KernelMaths17pre_in_post_worldEttttttRsS1_+0x128>
    38b0:	e1a0600e 	mov	r6, lr
    38b4:	e0422004 	sub	r2, r2, r4
    38b8:	e1a02802 	lsl	r2, r2, #16
    38bc:	e1a02822 	lsr	r2, r2, #16
    38c0:	e286e001 	add	lr, r6, #1
    38c4:	e1a0e80e 	lsl	lr, lr, #16
    38c8:	e1540002 	cmp	r4, r2
    38cc:	e1a0e82e 	lsr	lr, lr, #16
    38d0:	dafffff6 	ble	38b0 <_ZN17ConnectionBuilder11KernelMaths17pre_in_post_worldEttttttRsS1_+0x50>
    38d4:	e2866002 	add	r6, r6, #2
    38d8:	e1a06806 	lsl	r6, r6, #16
    38dc:	e1a06846 	asr	r6, r6, #16
    38e0:	ea000029 	b	398c <_ZN17ConnectionBuilder11KernelMaths17pre_in_post_worldEttttttRsS1_+0x12c>
    38e4:	e26e2001 	rsb	r2, lr, #1
    38e8:	e1a02802 	lsl	r2, r2, #16
    38ec:	e1b02822 	lsrs	r2, r2, #16
    38f0:	0a000002 	beq	3900 <_ZN17ConnectionBuilder11KernelMaths17pre_in_post_worldEttttttRsS1_+0xa0>
    38f4:	e1520004 	cmp	r2, r4
    38f8:	a3a06000 	movge	r6, #0
    38fc:	aa00003d 	bge	39f8 <_ZN17ConnectionBuilder11KernelMaths17pre_in_post_worldEttttttRsS1_+0x198>
    3900:	e3a02001 	mov	r2, #1
    3904:	e1c520b0 	strh	r2, [r5]
    3908:	e0413003 	sub	r3, r1, r3
    390c:	e1a03803 	lsl	r3, r3, #16
    3910:	e2432801 	sub	r2, r3, #65536	; 0x10000
    3914:	e1a01842 	asr	r1, r2, #16
    3918:	e3510000 	cmp	r1, #0
    391c:	e1a03823 	lsr	r3, r3, #16
    3920:	e1a02822 	lsr	r2, r2, #16
    3924:	0a00001a 	beq	3994 <_ZN17ConnectionBuilder11KernelMaths17pre_in_post_worldEttttttRsS1_+0x134>
    3928:	ba00001c 	blt	39a0 <_ZN17ConnectionBuilder11KernelMaths17pre_in_post_worldEttttttRsS1_+0x140>
    392c:	e3520000 	cmp	r2, #0
    3930:	0a000003 	beq	3944 <_ZN17ConnectionBuilder11KernelMaths17pre_in_post_worldEttttttRsS1_+0xe4>
    3934:	e1520000 	cmp	r2, r0
    3938:	a1a03002 	movge	r3, r2
    393c:	a3a01000 	movge	r1, #0
    3940:	aa000003 	bge	3954 <_ZN17ConnectionBuilder11KernelMaths17pre_in_post_worldEttttttRsS1_+0xf4>
    3944:	e3a01001 	mov	r1, #1
    3948:	e1cc10b0 	strh	r1, [ip]
    394c:	e8bd8070 	pop	{r4, r5, r6, pc}
    3950:	e1a01002 	mov	r1, r2
    3954:	e0433000 	sub	r3, r3, r0
    3958:	e1a03803 	lsl	r3, r3, #16
    395c:	e1a03823 	lsr	r3, r3, #16
    3960:	e2812001 	add	r2, r1, #1
    3964:	e1a02802 	lsl	r2, r2, #16
    3968:	e1500003 	cmp	r0, r3
    396c:	e1a02822 	lsr	r2, r2, #16
    3970:	dafffff6 	ble	3950 <_ZN17ConnectionBuilder11KernelMaths17pre_in_post_worldEttttttRsS1_+0xf0>
    3974:	e2811002 	add	r1, r1, #2
    3978:	e1a01801 	lsl	r1, r1, #16
    397c:	e1a01841 	asr	r1, r1, #16
    3980:	e1cc10b0 	strh	r1, [ip]
    3984:	e8bd8070 	pop	{r4, r5, r6, pc}
    3988:	e3a06001 	mov	r6, #1
    398c:	e1c560b0 	strh	r6, [r5]
    3990:	eaffffdc 	b	3908 <_ZN17ConnectionBuilder11KernelMaths17pre_in_post_worldEttttttRsS1_+0xa8>
    3994:	e3a03001 	mov	r3, #1
    3998:	e1cc30b0 	strh	r3, [ip]
    399c:	e8bd8070 	pop	{r4, r5, r6, pc}
    39a0:	e2633001 	rsb	r3, r3, #1
    39a4:	e1a03803 	lsl	r3, r3, #16
    39a8:	e1b03823 	lsrs	r3, r3, #16
    39ac:	0afffff8 	beq	3994 <_ZN17ConnectionBuilder11KernelMaths17pre_in_post_worldEttttttRsS1_+0x134>
    39b0:	e1530000 	cmp	r3, r0
    39b4:	a3a01000 	movge	r1, #0
    39b8:	aa000001 	bge	39c4 <_ZN17ConnectionBuilder11KernelMaths17pre_in_post_worldEttttttRsS1_+0x164>
    39bc:	eafffff4 	b	3994 <_ZN17ConnectionBuilder11KernelMaths17pre_in_post_worldEttttttRsS1_+0x134>
    39c0:	e1a01002 	mov	r1, r2
    39c4:	e0433000 	sub	r3, r3, r0
    39c8:	e1a03803 	lsl	r3, r3, #16
    39cc:	e1a03823 	lsr	r3, r3, #16
    39d0:	e2812001 	add	r2, r1, #1
    39d4:	e1a02802 	lsl	r2, r2, #16
    39d8:	e1500003 	cmp	r0, r3
    39dc:	e1a02822 	lsr	r2, r2, #16
    39e0:	dafffff6 	ble	39c0 <_ZN17ConnectionBuilder11KernelMaths17pre_in_post_worldEttttttRsS1_+0x160>
    39e4:	e2613000 	rsb	r3, r1, #0
    39e8:	e1a03803 	lsl	r3, r3, #16
    39ec:	e1a03843 	asr	r3, r3, #16
    39f0:	eaffffe8 	b	3998 <_ZN17ConnectionBuilder11KernelMaths17pre_in_post_worldEttttttRsS1_+0x138>
    39f4:	e1a0600e 	mov	r6, lr
    39f8:	e0422004 	sub	r2, r2, r4
    39fc:	e1a02802 	lsl	r2, r2, #16
    3a00:	e1a02822 	lsr	r2, r2, #16
    3a04:	e286e001 	add	lr, r6, #1
    3a08:	e1a0e80e 	lsl	lr, lr, #16
    3a0c:	e1540002 	cmp	r4, r2
    3a10:	e1a0e82e 	lsr	lr, lr, #16
    3a14:	dafffff6 	ble	39f4 <_ZN17ConnectionBuilder11KernelMaths17pre_in_post_worldEttttttRsS1_+0x194>
    3a18:	e2662000 	rsb	r2, r6, #0
    3a1c:	e1a02802 	lsl	r2, r2, #16
    3a20:	e1a02842 	asr	r2, r2, #16
    3a24:	eaffffb6 	b	3904 <_ZN17ConnectionBuilder11KernelMaths17pre_in_post_worldEttttttRsS1_+0xa4>

00003a28 <_ZN6Common5Maths10NormalU032Em>:
    3a28:	e59f2158 	ldr	r2, [pc, #344]	; 3b88 <_ZN6Common5Maths10NormalU032Em+0x160>
    3a2c:	e1a03840 	asr	r3, r0, #16
    3a30:	e1530002 	cmp	r3, r2
    3a34:	aa000004 	bge	3a4c <_ZN6Common5Maths10NormalU032Em+0x24>
    3a38:	e59f214c 	ldr	r2, [pc, #332]	; 3b8c <_ZN6Common5Maths10NormalU032Em+0x164>
    3a3c:	e2833902 	add	r3, r3, #32768	; 0x8000
    3a40:	e7920103 	ldr	r0, [r2, r3, lsl #2]
    3a44:	e2600000 	rsb	r0, r0, #0
    3a48:	e12fff1e 	bx	lr
    3a4c:	e2632902 	rsb	r2, r3, #32768	; 0x8000
    3a50:	e352001f 	cmp	r2, #31
    3a54:	ca000004 	bgt	3a6c <_ZN6Common5Maths10NormalU032Em+0x44>
    3a58:	e59f112c 	ldr	r1, [pc, #300]	; 3b8c <_ZN6Common5Maths10NormalU032Em+0x164>
    3a5c:	e3530000 	cmp	r3, #0
    3a60:	e7910102 	ldr	r0, [r1, r2, lsl #2]
    3a64:	a12fff1e 	bxge	lr
    3a68:	eafffff5 	b	3a44 <_ZN6Common5Maths10NormalU032Em+0x1c>
    3a6c:	e0231fc3 	eor	r1, r3, r3, asr #31
    3a70:	e0411fc3 	sub	r1, r1, r3, asr #31
    3a74:	e92d4070 	push	{r4, r5, r6, lr}
    3a78:	e2614902 	rsb	r4, r1, #32768	; 0x8000
    3a7c:	e16f2f14 	clz	r2, r4
    3a80:	e2420011 	sub	r0, r2, #17
    3a84:	e3500004 	cmp	r0, #4
    3a88:	ca000021 	bgt	3b14 <_ZN6Common5Maths10NormalU032Em+0xec>
    3a8c:	e2422010 	sub	r2, r2, #16
    3a90:	e1650181 	smulbb	r5, r1, r1
    3a94:	e59fe0f0 	ldr	lr, [pc, #240]	; 3b8c <_ZN6Common5Maths10NormalU032Em+0x164>
    3a98:	e2624005 	rsb	r4, r2, #5
    3a9c:	e08e4104 	add	r4, lr, r4, lsl #2
    3aa0:	e594c18c 	ldr	ip, [r4, #396]	; 0x18c
    3aa4:	e59401a4 	ldr	r0, [r4, #420]	; 0x1a4
    3aa8:	e262200a 	rsb	r2, r2, #10
    3aac:	e06cc8c5 	rsb	ip, ip, r5, asr #17
    3ab0:	e1a04102 	lsl	r4, r2, #2
    3ab4:	e00c0c90 	mul	ip, r0, ip
    3ab8:	e0842002 	add	r2, r4, r2
    3abc:	e28e6084 	add	r6, lr, #132	; 0x84
    3ac0:	e1a02102 	lsl	r2, r2, #2
    3ac4:	e0865002 	add	r5, r6, r2
    3ac8:	e1a0008c 	lsl	r0, ip, #1
    3acc:	e7962002 	ldr	r2, [r6, r2]
    3ad0:	e5956004 	ldr	r6, [r5, #4]
    3ad4:	e1226082 	smlawb	r2, r2, r0, r6
    3ad8:	e5956008 	ldr	r6, [r5, #8]
    3adc:	e1226082 	smlawb	r2, r2, r0, r6
    3ae0:	e595600c 	ldr	r6, [r5, #12]
    3ae4:	e1226082 	smlawb	r2, r2, r0, r6
    3ae8:	e5955010 	ldr	r5, [r5, #16]
    3aec:	e1225082 	smlawb	r2, r2, r0, r5
    3af0:	e08ee004 	add	lr, lr, r4
    3af4:	e59e0160 	ldr	r0, [lr, #352]	; 0x160
    3af8:	e082278c 	add	r2, r2, ip, lsl #15
    3afc:	e1a00680 	lsl	r0, r0, #13
    3b00:	e0800842 	add	r0, r0, r2, asr #16
    3b04:	e12001a0 	smulwb	r0, r0, r1
    3b08:	e3530000 	cmp	r3, #0
    3b0c:	b2600000 	rsblt	r0, r0, #0
    3b10:	e8bd8070 	pop	{r4, r5, r6, pc}
    3b14:	e2601009 	rsb	r1, r0, #9
    3b18:	e1a0e101 	lsl	lr, r1, #2
    3b1c:	e59fc068 	ldr	ip, [pc, #104]	; 3b8c <_ZN6Common5Maths10NormalU032Em+0x164>
    3b20:	e3a05001 	mov	r5, #1
    3b24:	e08e1001 	add	r1, lr, r1
    3b28:	e260000e 	rsb	r0, r0, #14
    3b2c:	e0440015 	sub	r0, r4, r5, lsl r0
    3b30:	e1a01101 	lsl	r1, r1, #2
    3b34:	e28c5084 	add	r5, ip, #132	; 0x84
    3b38:	e0854001 	add	r4, r5, r1
    3b3c:	e2422010 	sub	r2, r2, #16
    3b40:	e1a02210 	lsl	r2, r0, r2
    3b44:	e7950001 	ldr	r0, [r5, r1]
    3b48:	e5941004 	ldr	r1, [r4, #4]
    3b4c:	e1201280 	smlawb	r0, r0, r2, r1
    3b50:	e5941008 	ldr	r1, [r4, #8]
    3b54:	e1201280 	smlawb	r0, r0, r2, r1
    3b58:	e594100c 	ldr	r1, [r4, #12]
    3b5c:	e1201280 	smlawb	r0, r0, r2, r1
    3b60:	e5941010 	ldr	r1, [r4, #16]
    3b64:	e1221280 	smlawb	r2, r0, r2, r1
    3b68:	e1a01742 	asr	r1, r2, #14
    3b6c:	e08cc00e 	add	ip, ip, lr
    3b70:	e2011001 	and	r1, r1, #1
    3b74:	e59c0160 	ldr	r0, [ip, #352]	; 0x160
    3b78:	e08127c2 	add	r2, r1, r2, asr #15
    3b7c:	e1a02782 	lsl	r2, r2, #15
    3b80:	e0800842 	add	r0, r0, r2, asr #16
    3b84:	eaffffdf 	b	3b08 <_ZN6Common5Maths10NormalU032Em+0xe0>
    3b88:	ffff8020 	.word	0xffff8020
    3b8c:	0000602c 	.word	0x0000602c

00003b90 <rte_handler>:
    3b90:	4b01      	ldr	r3, [pc, #4]	; (3b98 <rte_handler+0x8>)
    3b92:	2208      	movs	r2, #8
    3b94:	701a      	strb	r2, [r3, #0]
    3b96:	4770      	bx	lr
    3b98:	e5007f2b 	.word	0xe5007f2b

00003b9c <sark_app_id>:
    3b9c:	235c      	movs	r3, #92	; 0x5c
    3b9e:	7818      	ldrb	r0, [r3, #0]
    3ba0:	4770      	bx	lr
	...

00003ba4 <sark_cpu_state>:
    3ba4:	4b02      	ldr	r3, [pc, #8]	; (3bb0 <sark_cpu_state+0xc>)
    3ba6:	69db      	ldr	r3, [r3, #28]
    3ba8:	332e      	adds	r3, #46	; 0x2e
    3baa:	7018      	strb	r0, [r3, #0]
    3bac:	4770      	bx	lr
    3bae:	46c0      	nop			; (mov r8, r8)
    3bb0:	00400530 	.word	0x00400530

00003bb4 <sark_app_lead>:
    3bb4:	235c      	movs	r3, #92	; 0x5c
    3bb6:	781a      	ldrb	r2, [r3, #0]
    3bb8:	4b02      	ldr	r3, [pc, #8]	; (3bc4 <sark_app_lead+0x10>)
    3bba:	00d2      	lsls	r2, r2, #3
    3bbc:	681b      	ldr	r3, [r3, #0]
    3bbe:	189b      	adds	r3, r3, r2
    3bc0:	78d8      	ldrb	r0, [r3, #3]
    3bc2:	4770      	bx	lr
    3bc4:	e5007fe4 	.word	0xe5007fe4

00003bc8 <sark_block_init>:
    3bc8:	b530      	push	{r4, r5, lr}
    3bca:	000b      	movs	r3, r1
    3bcc:	0004      	movs	r4, r0
    3bce:	3b01      	subs	r3, #1
    3bd0:	2b00      	cmp	r3, #0
    3bd2:	d104      	bne.n	3bde <sark_block_init+0x16>
    3bd4:	3901      	subs	r1, #1
    3bd6:	434a      	muls	r2, r1
    3bd8:	1880      	adds	r0, r0, r2
    3bda:	6003      	str	r3, [r0, #0]
    3bdc:	bd30      	pop	{r4, r5, pc}
    3bde:	18a5      	adds	r5, r4, r2
    3be0:	6025      	str	r5, [r4, #0]
    3be2:	002c      	movs	r4, r5
    3be4:	e7f3      	b.n	3bce <sark_block_init+0x6>
	...

00003be8 <sark_msg_get>:
    3be8:	b510      	push	{r4, lr}
    3bea:	f7fc eaee 	blx	1c8 <cpu_int_disable>
    3bee:	4a09      	ldr	r2, [pc, #36]	; (3c14 <sark_msg_get+0x2c>)
    3bf0:	6a14      	ldr	r4, [r2, #32]
    3bf2:	2c00      	cmp	r4, #0
    3bf4:	d00a      	beq.n	3c0c <sark_msg_get+0x24>
    3bf6:	6823      	ldr	r3, [r4, #0]
    3bf8:	6213      	str	r3, [r2, #32]
    3bfa:	8c93      	ldrh	r3, [r2, #36]	; 0x24
    3bfc:	8cd1      	ldrh	r1, [r2, #38]	; 0x26
    3bfe:	3301      	adds	r3, #1
    3c00:	041b      	lsls	r3, r3, #16
    3c02:	0c1b      	lsrs	r3, r3, #16
    3c04:	8493      	strh	r3, [r2, #36]	; 0x24
    3c06:	4299      	cmp	r1, r3
    3c08:	d200      	bcs.n	3c0c <sark_msg_get+0x24>
    3c0a:	84d3      	strh	r3, [r2, #38]	; 0x26
    3c0c:	f7fc eae4 	blx	1d8 <cpu_int_restore>
    3c10:	0020      	movs	r0, r4
    3c12:	bd10      	pop	{r4, pc}
    3c14:	00400530 	.word	0x00400530

00003c18 <sark_msg_free>:
    3c18:	b510      	push	{r4, lr}
    3c1a:	0004      	movs	r4, r0
    3c1c:	f7fc ead4 	blx	1c8 <cpu_int_disable>
    3c20:	4b04      	ldr	r3, [pc, #16]	; (3c34 <sark_msg_free+0x1c>)
    3c22:	6a1a      	ldr	r2, [r3, #32]
    3c24:	6022      	str	r2, [r4, #0]
    3c26:	8c9a      	ldrh	r2, [r3, #36]	; 0x24
    3c28:	621c      	str	r4, [r3, #32]
    3c2a:	3a01      	subs	r2, #1
    3c2c:	849a      	strh	r2, [r3, #36]	; 0x24
    3c2e:	f7fc ead4 	blx	1d8 <cpu_int_restore>
    3c32:	bd10      	pop	{r4, pc}
    3c34:	00400530 	.word	0x00400530

00003c38 <sark_shmsg_get>:
    3c38:	b510      	push	{r4, lr}
    3c3a:	2000      	movs	r0, #0
    3c3c:	f7fc ead4 	blx	1e8 <sark_lock_get>
    3c40:	4a09      	ldr	r2, [pc, #36]	; (3c68 <sark_shmsg_get+0x30>)
    3c42:	6814      	ldr	r4, [r2, #0]
    3c44:	2c00      	cmp	r4, #0
    3c46:	d00a      	beq.n	3c5e <sark_shmsg_get+0x26>
    3c48:	6823      	ldr	r3, [r4, #0]
    3c4a:	6013      	str	r3, [r2, #0]
    3c4c:	8893      	ldrh	r3, [r2, #4]
    3c4e:	88d1      	ldrh	r1, [r2, #6]
    3c50:	3301      	adds	r3, #1
    3c52:	041b      	lsls	r3, r3, #16
    3c54:	0c1b      	lsrs	r3, r3, #16
    3c56:	8093      	strh	r3, [r2, #4]
    3c58:	4299      	cmp	r1, r3
    3c5a:	d200      	bcs.n	3c5e <sark_shmsg_get+0x26>
    3c5c:	80d3      	strh	r3, [r2, #6]
    3c5e:	2100      	movs	r1, #0
    3c60:	f7fc ead4 	blx	20c <sark_lock_free>
    3c64:	0020      	movs	r0, r4
    3c66:	bd10      	pop	{r4, pc}
    3c68:	e5007f68 	.word	0xe5007f68

00003c6c <sark_shmsg_free>:
    3c6c:	b510      	push	{r4, lr}
    3c6e:	0004      	movs	r4, r0
    3c70:	2000      	movs	r0, #0
    3c72:	f7fc eaba 	blx	1e8 <sark_lock_get>
    3c76:	4b05      	ldr	r3, [pc, #20]	; (3c8c <sark_shmsg_free+0x20>)
    3c78:	2100      	movs	r1, #0
    3c7a:	681a      	ldr	r2, [r3, #0]
    3c7c:	6022      	str	r2, [r4, #0]
    3c7e:	889a      	ldrh	r2, [r3, #4]
    3c80:	601c      	str	r4, [r3, #0]
    3c82:	3a01      	subs	r2, #1
    3c84:	809a      	strh	r2, [r3, #4]
    3c86:	f7fc eac2 	blx	20c <sark_lock_free>
    3c8a:	bd10      	pop	{r4, pc}
    3c8c:	e5007f68 	.word	0xe5007f68

00003c90 <sark_call_cpp_constructors>:
    3c90:	b510      	push	{r4, lr}
    3c92:	4c04      	ldr	r4, [pc, #16]	; (3ca4 <sark_call_cpp_constructors+0x14>)
    3c94:	4b04      	ldr	r3, [pc, #16]	; (3ca8 <sark_call_cpp_constructors+0x18>)
    3c96:	429c      	cmp	r4, r3
    3c98:	d300      	bcc.n	3c9c <sark_call_cpp_constructors+0xc>
    3c9a:	bd10      	pop	{r4, pc}
    3c9c:	cc08      	ldmia	r4!, {r3}
    3c9e:	4798      	blx	r3
    3ca0:	e7f8      	b.n	3c94 <sark_call_cpp_constructors+0x4>
    3ca2:	46c0      	nop			; (mov r8, r8)
    3ca4:	00005510 	.word	0x00005510
    3ca8:	00005514 	.word	0x00005514

00003cac <sark_init>:
    3cac:	b570      	push	{r4, r5, r6, lr}
    3cae:	2520      	movs	r5, #32
    3cb0:	0004      	movs	r4, r0
    3cb2:	8c28      	ldrh	r0, [r5, #32]
    3cb4:	8c6a      	ldrh	r2, [r5, #34]	; 0x22
    3cb6:	0080      	lsls	r0, r0, #2
    3cb8:	1a20      	subs	r0, r4, r0
    3cba:	21d2      	movs	r1, #210	; 0xd2
    3cbc:	f7fc ea68 	blx	190 <cpu_init_mode>
    3cc0:	8caa      	ldrh	r2, [r5, #36]	; 0x24
    3cc2:	21d1      	movs	r1, #209	; 0xd1
    3cc4:	f7fc ea64 	blx	190 <cpu_init_mode>
    3cc8:	2200      	movs	r2, #0
    3cca:	21df      	movs	r1, #223	; 0xdf
    3ccc:	f7fc ea60 	blx	190 <cpu_init_mode>
    3cd0:	8ce9      	ldrh	r1, [r5, #38]	; 0x26
    3cd2:	2658      	movs	r6, #88	; 0x58
    3cd4:	0889      	lsrs	r1, r1, #2
    3cd6:	0089      	lsls	r1, r1, #2
    3cd8:	1a61      	subs	r1, r4, r1
    3cda:	4c37      	ldr	r4, [pc, #220]	; (3db8 <sark_init+0x10c>)
    3cdc:	6121      	str	r1, [r4, #16]
    3cde:	6ae8      	ldr	r0, [r5, #44]	; 0x2c
    3ce0:	6160      	str	r0, [r4, #20]
    3ce2:	f000 fbc7 	bl	4474 <sark_heap_init>
    3ce6:	4b35      	ldr	r3, [pc, #212]	; (3dbc <sark_init+0x110>)
    3ce8:	4a35      	ldr	r2, [pc, #212]	; (3dc0 <sark_init+0x114>)
    3cea:	681b      	ldr	r3, [r3, #0]
    3cec:	4d35      	ldr	r5, [pc, #212]	; (3dc4 <sark_init+0x118>)
    3cee:	0e1b      	lsrs	r3, r3, #24
    3cf0:	6063      	str	r3, [r4, #4]
    3cf2:	189b      	adds	r3, r3, r2
    3cf4:	2192      	movs	r1, #146	; 0x92
    3cf6:	0049      	lsls	r1, r1, #1
    3cf8:	61a0      	str	r0, [r4, #24]
    3cfa:	781b      	ldrb	r3, [r3, #0]
    3cfc:	6023      	str	r3, [r4, #0]
    3cfe:	8cab      	ldrh	r3, [r5, #36]	; 0x24
    3d00:	8623      	strh	r3, [r4, #48]	; 0x30
    3d02:	4b31      	ldr	r3, [pc, #196]	; (3dc8 <sark_init+0x11c>)
    3d04:	60a3      	str	r3, [r4, #8]
    3d06:	7830      	ldrb	r0, [r6, #0]
    3d08:	f000 fb38 	bl	437c <sark_alloc>
    3d0c:	2292      	movs	r2, #146	; 0x92
    3d0e:	0052      	lsls	r2, r2, #1
    3d10:	6220      	str	r0, [r4, #32]
    3d12:	7831      	ldrb	r1, [r6, #0]
    3d14:	f7ff ff58 	bl	3bc8 <sark_block_init>
    3d18:	4b2c      	ldr	r3, [pc, #176]	; (3dcc <sark_init+0x120>)
    3d1a:	221f      	movs	r2, #31
    3d1c:	681b      	ldr	r3, [r3, #0]
    3d1e:	4013      	ands	r3, r2
    3d20:	6862      	ldr	r2, [r4, #4]
    3d22:	429a      	cmp	r2, r3
    3d24:	d032      	beq.n	3d8c <sark_init+0xe0>
    3d26:	6823      	ldr	r3, [r4, #0]
    3d28:	4a29      	ldr	r2, [pc, #164]	; (3dd0 <sark_init+0x124>)
    3d2a:	01d8      	lsls	r0, r3, #7
    3d2c:	1880      	adds	r0, r0, r2
    3d2e:	6daa      	ldr	r2, [r5, #88]	; 0x58
    3d30:	2100      	movs	r1, #0
    3d32:	435a      	muls	r2, r3
    3d34:	0093      	lsls	r3, r2, #2
    3d36:	6d6a      	ldr	r2, [r5, #84]	; 0x54
    3d38:	61e0      	str	r0, [r4, #28]
    3d3a:	18d3      	adds	r3, r2, r3
    3d3c:	2270      	movs	r2, #112	; 0x70
    3d3e:	6363      	str	r3, [r4, #52]	; 0x34
    3d40:	f7fc ea78 	blx	234 <sark_word_set>
    3d44:	69e0      	ldr	r0, [r4, #28]
    3d46:	2205      	movs	r2, #5
    3d48:	0003      	movs	r3, r0
    3d4a:	332e      	adds	r3, #46	; 0x2e
    3d4c:	701a      	strb	r2, [r3, #0]
    3d4e:	6862      	ldr	r2, [r4, #4]
    3d50:	3b01      	subs	r3, #1
    3d52:	701a      	strb	r2, [r3, #0]
    3d54:	225c      	movs	r2, #92	; 0x5c
    3d56:	7812      	ldrb	r2, [r2, #0]
    3d58:	709a      	strb	r2, [r3, #2]
    3d5a:	69eb      	ldr	r3, [r5, #28]
    3d5c:	6443      	str	r3, [r0, #68]	; 0x44
    3d5e:	4b1d      	ldr	r3, [pc, #116]	; (3dd4 <sark_init+0x128>)
    3d60:	65c3      	str	r3, [r0, #92]	; 0x5c
    3d62:	491d      	ldr	r1, [pc, #116]	; (3dd8 <sark_init+0x12c>)
    3d64:	3048      	adds	r0, #72	; 0x48
    3d66:	f7fc ea5c 	blx	220 <sark_str_cpy>
    3d6a:	4b1c      	ldr	r3, [pc, #112]	; (3ddc <sark_init+0x130>)
    3d6c:	22ff      	movs	r2, #255	; 0xff
    3d6e:	681b      	ldr	r3, [r3, #0]
    3d70:	0412      	lsls	r2, r2, #16
    3d72:	21c0      	movs	r1, #192	; 0xc0
    3d74:	401a      	ands	r2, r3
    3d76:	0289      	lsls	r1, r1, #10
    3d78:	428a      	cmp	r2, r1
    3d7a:	d104      	bne.n	3d86 <sark_init+0xda>
    3d7c:	22ff      	movs	r2, #255	; 0xff
    3d7e:	0212      	lsls	r2, r2, #8
    3d80:	4013      	ands	r3, r2
    3d82:	2bff      	cmp	r3, #255	; 0xff
    3d84:	d802      	bhi.n	3d8c <sark_init+0xe0>
    3d86:	2014      	movs	r0, #20
    3d88:	f7fc e9d0 	blx	12c <rt_error>
    3d8c:	f000 fa34 	bl	41f8 <sark_vic_init>
    3d90:	2359      	movs	r3, #89	; 0x59
    3d92:	7818      	ldrb	r0, [r3, #0]
    3d94:	2201      	movs	r2, #1
    3d96:	4b12      	ldr	r3, [pc, #72]	; (3de0 <sark_init+0x134>)
    3d98:	2112      	movs	r1, #18
    3d9a:	f000 fa55 	bl	4248 <sark_vic_set>
    3d9e:	2201      	movs	r2, #1
    3da0:	2106      	movs	r1, #6
    3da2:	4b10      	ldr	r3, [pc, #64]	; (3de4 <sark_init+0x138>)
    3da4:	2010      	movs	r0, #16
    3da6:	f000 fa4f 	bl	4248 <sark_vic_set>
    3daa:	235a      	movs	r3, #90	; 0x5a
    3dac:	7818      	ldrb	r0, [r3, #0]
    3dae:	f000 fa05 	bl	41bc <event_alloc>
    3db2:	201f      	movs	r0, #31
    3db4:	bd70      	pop	{r4, r5, r6, pc}
    3db6:	46c0      	nop			; (mov r8, r8)
    3db8:	00400530 	.word	0x00400530
    3dbc:	40000014 	.word	0x40000014
    3dc0:	e5007f94 	.word	0xe5007f94
    3dc4:	e5007f00 	.word	0xe5007f00
    3dc8:	deaddead 	.word	0xdeaddead
    3dcc:	e2000034 	.word	0xe2000034
    3dd0:	e5007000 	.word	0xe5007000
    3dd4:	00030101 	.word	0x00030101
    3dd8:	000061e8 	.word	0x000061e8
    3ddc:	e5007ffc 	.word	0xe5007ffc
    3de0:	00000300 	.word	0x00000300
    3de4:	00004288 	.word	0x00004288

00003de8 <sark_msg_send>:
    3de8:	b5f8      	push	{r3, r4, r5, r6, r7, lr}
    3dea:	0004      	movs	r4, r0
    3dec:	000f      	movs	r7, r1
    3dee:	f7ff ff23 	bl	3c38 <sark_shmsg_get>
    3df2:	1e06      	subs	r6, r0, #0
    3df4:	d032      	beq.n	3e5c <sark_msg_send+0x74>
    3df6:	0021      	movs	r1, r4
    3df8:	f7fc ea2e 	blx	258 <sark_msg_cpy>
    3dfc:	4d1a      	ldr	r5, [pc, #104]	; (3e68 <sark_msg_send+0x80>)
    3dfe:	2401      	movs	r4, #1
    3e00:	69eb      	ldr	r3, [r5, #28]
    3e02:	0020      	movs	r0, r4
    3e04:	635e      	str	r6, [r3, #52]	; 0x34
    3e06:	3339      	adds	r3, #57	; 0x39
    3e08:	701c      	strb	r4, [r3, #0]
    3e0a:	f7fc e9ee 	blx	1e8 <sark_lock_get>
    3e0e:	4b17      	ldr	r3, [pc, #92]	; (3e6c <sark_msg_send+0x84>)
    3e10:	6829      	ldr	r1, [r5, #0]
    3e12:	681a      	ldr	r2, [r3, #0]
    3e14:	469c      	mov	ip, r3
    3e16:	0023      	movs	r3, r4
    3e18:	408b      	lsls	r3, r1
    3e1a:	4313      	orrs	r3, r2
    3e1c:	4661      	mov	r1, ip
    3e1e:	600b      	str	r3, [r1, #0]
    3e20:	2a00      	cmp	r2, #0
    3e22:	d106      	bne.n	3e32 <sark_msg_send+0x4a>
    3e24:	4b12      	ldr	r3, [pc, #72]	; (3e70 <sark_msg_send+0x88>)
    3e26:	781b      	ldrb	r3, [r3, #0]
    3e28:	409c      	lsls	r4, r3
    3e2a:	4b12      	ldr	r3, [pc, #72]	; (3e74 <sark_msg_send+0x8c>)
    3e2c:	18e4      	adds	r4, r4, r3
    3e2e:	4b12      	ldr	r3, [pc, #72]	; (3e78 <sark_msg_send+0x90>)
    3e30:	601c      	str	r4, [r3, #0]
    3e32:	2101      	movs	r1, #1
    3e34:	f7fc e9ea 	blx	20c <sark_lock_free>
    3e38:	4a10      	ldr	r2, [pc, #64]	; (3e7c <sark_msg_send+0x94>)
    3e3a:	69eb      	ldr	r3, [r5, #28]
    3e3c:	6810      	ldr	r0, [r2, #0]
    3e3e:	3339      	adds	r3, #57	; 0x39
    3e40:	7819      	ldrb	r1, [r3, #0]
    3e42:	2900      	cmp	r1, #0
    3e44:	d003      	beq.n	3e4e <sark_msg_send+0x66>
    3e46:	6811      	ldr	r1, [r2, #0]
    3e48:	1a09      	subs	r1, r1, r0
    3e4a:	42b9      	cmp	r1, r7
    3e4c:	d9f8      	bls.n	3e40 <sark_msg_send+0x58>
    3e4e:	781b      	ldrb	r3, [r3, #0]
    3e50:	2b00      	cmp	r3, #0
    3e52:	d004      	beq.n	3e5e <sark_msg_send+0x76>
    3e54:	0030      	movs	r0, r6
    3e56:	f7ff ff09 	bl	3c6c <sark_shmsg_free>
    3e5a:	2000      	movs	r0, #0
    3e5c:	bdf8      	pop	{r3, r4, r5, r6, r7, pc}
    3e5e:	6aeb      	ldr	r3, [r5, #44]	; 0x2c
    3e60:	2001      	movs	r0, #1
    3e62:	3301      	adds	r3, #1
    3e64:	62eb      	str	r3, [r5, #44]	; 0x2c
    3e66:	e7f9      	b.n	3e5c <sark_msg_send+0x74>
    3e68:	00400530 	.word	0x00400530
    3e6c:	e5007fec 	.word	0xe5007fec
    3e70:	e5007fa8 	.word	0xe5007fa8
    3e74:	5ec00000 	.word	0x5ec00000
    3e78:	e2000008 	.word	0xe2000008
    3e7c:	e5007f10 	.word	0xe5007f10

00003e80 <sark_cmd_ver>:
    3e80:	4a0d      	ldr	r2, [pc, #52]	; (3eb8 <sark_cmd_ver+0x38>)
    3e82:	b510      	push	{r4, lr}
    3e84:	6853      	ldr	r3, [r2, #4]
    3e86:	6812      	ldr	r2, [r2, #0]
    3e88:	021b      	lsls	r3, r3, #8
    3e8a:	189b      	adds	r3, r3, r2
    3e8c:	4a0b      	ldr	r2, [pc, #44]	; (3ebc <sark_cmd_ver+0x3c>)
    3e8e:	0004      	movs	r4, r0
    3e90:	8812      	ldrh	r2, [r2, #0]
    3e92:	490b      	ldr	r1, [pc, #44]	; (3ec0 <sark_cmd_ver+0x40>)
    3e94:	0412      	lsls	r2, r2, #16
    3e96:	189b      	adds	r3, r3, r2
    3e98:	6143      	str	r3, [r0, #20]
    3e9a:	4b0a      	ldr	r3, [pc, #40]	; (3ec4 <sark_cmd_ver+0x44>)
    3e9c:	6183      	str	r3, [r0, #24]
    3e9e:	4b0a      	ldr	r3, [pc, #40]	; (3ec8 <sark_cmd_ver+0x48>)
    3ea0:	681b      	ldr	r3, [r3, #0]
    3ea2:	61c3      	str	r3, [r0, #28]
    3ea4:	3020      	adds	r0, #32
    3ea6:	f7fc e9bc 	blx	220 <sark_str_cpy>
    3eaa:	0020      	movs	r0, r4
    3eac:	302f      	adds	r0, #47	; 0x2f
    3eae:	4907      	ldr	r1, [pc, #28]	; (3ecc <sark_cmd_ver+0x4c>)
    3eb0:	f7fc e9b6 	blx	220 <sark_str_cpy>
    3eb4:	2021      	movs	r0, #33	; 0x21
    3eb6:	bd10      	pop	{r4, pc}
    3eb8:	00400530 	.word	0x00400530
    3ebc:	e5007f00 	.word	0xe5007f00
    3ec0:	000061fc 	.word	0x000061fc
    3ec4:	ffff0100 	.word	0xffff0100
    3ec8:	000061f8 	.word	0x000061f8
    3ecc:	0000620b 	.word	0x0000620b

00003ed0 <sark_cmd_read>:
    3ed0:	6981      	ldr	r1, [r0, #24]
    3ed2:	2380      	movs	r3, #128	; 0x80
    3ed4:	b530      	push	{r4, r5, lr}
    3ed6:	005b      	lsls	r3, r3, #1
    3ed8:	4299      	cmp	r1, r3
    3eda:	d802      	bhi.n	3ee2 <sark_cmd_read+0x12>
    3edc:	69c2      	ldr	r2, [r0, #28]
    3ede:	2a02      	cmp	r2, #2
    3ee0:	d904      	bls.n	3eec <sark_cmd_read+0x1c>
    3ee2:	2384      	movs	r3, #132	; 0x84
    3ee4:	2100      	movs	r1, #0
    3ee6:	8203      	strh	r3, [r0, #16]
    3ee8:	0008      	movs	r0, r1
    3eea:	bd30      	pop	{r4, r5, pc}
    3eec:	0003      	movs	r3, r0
    3eee:	6944      	ldr	r4, [r0, #20]
    3ef0:	3314      	adds	r3, #20
    3ef2:	2a00      	cmp	r2, #0
    3ef4:	d00f      	beq.n	3f16 <sark_cmd_read+0x46>
    3ef6:	2a01      	cmp	r2, #1
    3ef8:	d110      	bne.n	3f1c <sark_cmd_read+0x4c>
    3efa:	084a      	lsrs	r2, r1, #1
    3efc:	0052      	lsls	r2, r2, #1
    3efe:	189a      	adds	r2, r3, r2
    3f00:	0018      	movs	r0, r3
    3f02:	4290      	cmp	r0, r2
    3f04:	d0f0      	beq.n	3ee8 <sark_cmd_read+0x18>
    3f06:	1ac5      	subs	r5, r0, r3
    3f08:	5b2d      	ldrh	r5, [r5, r4]
    3f0a:	8005      	strh	r5, [r0, #0]
    3f0c:	3002      	adds	r0, #2
    3f0e:	e7f8      	b.n	3f02 <sark_cmd_read+0x32>
    3f10:	5d10      	ldrb	r0, [r2, r4]
    3f12:	5498      	strb	r0, [r3, r2]
    3f14:	3201      	adds	r2, #1
    3f16:	428a      	cmp	r2, r1
    3f18:	d1fa      	bne.n	3f10 <sark_cmd_read+0x40>
    3f1a:	e7e5      	b.n	3ee8 <sark_cmd_read+0x18>
    3f1c:	088a      	lsrs	r2, r1, #2
    3f1e:	0092      	lsls	r2, r2, #2
    3f20:	189a      	adds	r2, r3, r2
    3f22:	0018      	movs	r0, r3
    3f24:	4290      	cmp	r0, r2
    3f26:	d0df      	beq.n	3ee8 <sark_cmd_read+0x18>
    3f28:	1ac5      	subs	r5, r0, r3
    3f2a:	592d      	ldr	r5, [r5, r4]
    3f2c:	c020      	stmia	r0!, {r5}
    3f2e:	e7f9      	b.n	3f24 <sark_cmd_read+0x54>

00003f30 <sark_cmd_write>:
    3f30:	6983      	ldr	r3, [r0, #24]
    3f32:	2280      	movs	r2, #128	; 0x80
    3f34:	b530      	push	{r4, r5, lr}
    3f36:	0052      	lsls	r2, r2, #1
    3f38:	4293      	cmp	r3, r2
    3f3a:	d802      	bhi.n	3f42 <sark_cmd_write+0x12>
    3f3c:	69c1      	ldr	r1, [r0, #28]
    3f3e:	2902      	cmp	r1, #2
    3f40:	d903      	bls.n	3f4a <sark_cmd_write+0x1a>
    3f42:	2384      	movs	r3, #132	; 0x84
    3f44:	8203      	strh	r3, [r0, #16]
    3f46:	2000      	movs	r0, #0
    3f48:	bd30      	pop	{r4, r5, pc}
    3f4a:	6942      	ldr	r2, [r0, #20]
    3f4c:	3020      	adds	r0, #32
    3f4e:	2900      	cmp	r1, #0
    3f50:	d108      	bne.n	3f64 <sark_cmd_write+0x34>
    3f52:	18c3      	adds	r3, r0, r3
    3f54:	0001      	movs	r1, r0
    3f56:	4299      	cmp	r1, r3
    3f58:	d0f5      	beq.n	3f46 <sark_cmd_write+0x16>
    3f5a:	780d      	ldrb	r5, [r1, #0]
    3f5c:	1a0c      	subs	r4, r1, r0
    3f5e:	54a5      	strb	r5, [r4, r2]
    3f60:	3101      	adds	r1, #1
    3f62:	e7f8      	b.n	3f56 <sark_cmd_write+0x26>
    3f64:	2901      	cmp	r1, #1
    3f66:	d10a      	bne.n	3f7e <sark_cmd_write+0x4e>
    3f68:	085b      	lsrs	r3, r3, #1
    3f6a:	005b      	lsls	r3, r3, #1
    3f6c:	18c3      	adds	r3, r0, r3
    3f6e:	0001      	movs	r1, r0
    3f70:	4299      	cmp	r1, r3
    3f72:	d0e8      	beq.n	3f46 <sark_cmd_write+0x16>
    3f74:	880d      	ldrh	r5, [r1, #0]
    3f76:	1a0c      	subs	r4, r1, r0
    3f78:	52a5      	strh	r5, [r4, r2]
    3f7a:	3102      	adds	r1, #2
    3f7c:	e7f8      	b.n	3f70 <sark_cmd_write+0x40>
    3f7e:	089b      	lsrs	r3, r3, #2
    3f80:	009b      	lsls	r3, r3, #2
    3f82:	18c3      	adds	r3, r0, r3
    3f84:	0001      	movs	r1, r0
    3f86:	4299      	cmp	r1, r3
    3f88:	d0dd      	beq.n	3f46 <sark_cmd_write+0x16>
    3f8a:	1a0c      	subs	r4, r1, r0
    3f8c:	680d      	ldr	r5, [r1, #0]
    3f8e:	50a5      	str	r5, [r4, r2]
    3f90:	3104      	adds	r1, #4
    3f92:	e7f8      	b.n	3f86 <sark_cmd_write+0x56>

00003f94 <sark_cmd_fill>:
    3f94:	b510      	push	{r4, lr}
    3f96:	69c2      	ldr	r2, [r0, #28]
    3f98:	6981      	ldr	r1, [r0, #24]
    3f9a:	6940      	ldr	r0, [r0, #20]
    3f9c:	f7fc e94a 	blx	234 <sark_word_set>
    3fa0:	2000      	movs	r0, #0
    3fa2:	bd10      	pop	{r4, pc}

00003fa4 <sark_wait>:
    3fa4:	b570      	push	{r4, r5, r6, lr}
    3fa6:	255d      	movs	r5, #93	; 0x5d
    3fa8:	2401      	movs	r4, #1
    3faa:	782b      	ldrb	r3, [r5, #0]
    3fac:	4223      	tst	r3, r4
    3fae:	d100      	bne.n	3fb2 <sark_wait+0xe>
    3fb0:	bd70      	pop	{r4, r5, r6, pc}
    3fb2:	f7fc e916 	blx	1e0 <cpu_wfi>
    3fb6:	e7f8      	b.n	3faa <sark_wait+0x6>

00003fb8 <sark_int>:
    3fb8:	b570      	push	{r4, r5, r6, lr}
    3fba:	4d52      	ldr	r5, [pc, #328]	; (4104 <sark_int+0x14c>)
    3fbc:	2301      	movs	r3, #1
    3fbe:	686a      	ldr	r2, [r5, #4]
    3fc0:	4093      	lsls	r3, r2
    3fc2:	4a51      	ldr	r2, [pc, #324]	; (4108 <sark_int+0x150>)
    3fc4:	189b      	adds	r3, r3, r2
    3fc6:	4a51      	ldr	r2, [pc, #324]	; (410c <sark_int+0x154>)
    3fc8:	6013      	str	r3, [r2, #0]
    3fca:	69ea      	ldr	r2, [r5, #28]
    3fcc:	0011      	movs	r1, r2
    3fce:	3138      	adds	r1, #56	; 0x38
    3fd0:	780b      	ldrb	r3, [r1, #0]
    3fd2:	2b00      	cmp	r3, #0
    3fd4:	d015      	beq.n	4002 <sark_int+0x4a>
    3fd6:	6b16      	ldr	r6, [r2, #48]	; 0x30
    3fd8:	2b02      	cmp	r3, #2
    3fda:	d100      	bne.n	3fde <sark_int+0x26>
    3fdc:	6310      	str	r0, [r2, #48]	; 0x30
    3fde:	2200      	movs	r2, #0
    3fe0:	700a      	strb	r2, [r1, #0]
    3fe2:	2b03      	cmp	r3, #3
    3fe4:	d123      	bne.n	402e <sark_int+0x76>
    3fe6:	1ef0      	subs	r0, r6, #3
    3fe8:	280a      	cmp	r0, #10
    3fea:	d80a      	bhi.n	4002 <sark_int+0x4a>
    3fec:	f7fc f9ba 	bl	364 <__gnu_thumb1_case_uqi>
    3ff0:	06090910 	.word	0x06090910
    3ff4:	161d0c0a 	.word	0x161d0c0a
    3ff8:	1616      	.short	0x1616
    3ffa:	16          	.byte	0x16
    3ffb:	00          	.byte	0x00
    3ffc:	2001      	movs	r0, #1
    3ffe:	f000 f8bb 	bl	4178 <event_pause>
    4002:	bd70      	pop	{r4, r5, r6, pc}
    4004:	2000      	movs	r0, #0
    4006:	e7fa      	b.n	3ffe <sark_int+0x46>
    4008:	20ff      	movs	r0, #255	; 0xff
    400a:	f000 f8cb 	bl	41a4 <event_stop>
    400e:	e7f8      	b.n	4002 <sark_int+0x4a>
    4010:	225d      	movs	r2, #93	; 0x5d
    4012:	7813      	ldrb	r3, [r2, #0]
    4014:	2101      	movs	r1, #1
    4016:	438b      	bics	r3, r1
    4018:	7013      	strb	r3, [r2, #0]
    401a:	e7f2      	b.n	4002 <sark_int+0x4a>
    401c:	4b3c      	ldr	r3, [pc, #240]	; (4110 <sark_int+0x158>)
    401e:	2280      	movs	r2, #128	; 0x80
    4020:	0592      	lsls	r2, r2, #22
    4022:	62de      	str	r6, [r3, #44]	; 0x2c
    4024:	4b3b      	ldr	r3, [pc, #236]	; (4114 <sark_int+0x15c>)
    4026:	601a      	str	r2, [r3, #0]
    4028:	e7eb      	b.n	4002 <sark_int+0x4a>
    402a:	2210      	movs	r2, #16
    402c:	e7fa      	b.n	4024 <sark_int+0x6c>
    402e:	2b01      	cmp	r3, #1
    4030:	d1e7      	bne.n	4002 <sark_int+0x4a>
    4032:	f7ff fdd9 	bl	3be8 <sark_msg_get>
    4036:	1e04      	subs	r4, r0, #0
    4038:	d060      	beq.n	40fc <sark_int+0x144>
    403a:	0031      	movs	r1, r6
    403c:	f7fc e90c 	blx	258 <sark_msg_cpy>
    4040:	0030      	movs	r0, r6
    4042:	f7ff fe13 	bl	3c6c <sark_shmsg_free>
    4046:	6aab      	ldr	r3, [r5, #40]	; 0x28
    4048:	3301      	adds	r3, #1
    404a:	62ab      	str	r3, [r5, #40]	; 0x28
    404c:	7aa5      	ldrb	r5, [r4, #10]
    404e:	231f      	movs	r3, #31
    4050:	0028      	movs	r0, r5
    4052:	4398      	bics	r0, r3
    4054:	d133      	bne.n	40be <sark_int+0x106>
    4056:	88a3      	ldrh	r3, [r4, #4]
    4058:	2b17      	cmp	r3, #23
    405a:	d802      	bhi.n	4062 <sark_int+0xaa>
    405c:	2381      	movs	r3, #129	; 0x81
    405e:	8223      	strh	r3, [r4, #16]
    4060:	e007      	b.n	4072 <sark_int+0xba>
    4062:	8a23      	ldrh	r3, [r4, #16]
    4064:	2280      	movs	r2, #128	; 0x80
    4066:	8222      	strh	r2, [r4, #16]
    4068:	2b00      	cmp	r3, #0
    406a:	d114      	bne.n	4096 <sark_int+0xde>
    406c:	0020      	movs	r0, r4
    406e:	f7ff ff07 	bl	3e80 <sark_cmd_ver>
    4072:	7aa2      	ldrb	r2, [r4, #10]
    4074:	7ae1      	ldrb	r1, [r4, #11]
    4076:	300c      	adds	r0, #12
    4078:	89a3      	ldrh	r3, [r4, #12]
    407a:	72e2      	strb	r2, [r4, #11]
    407c:	89e2      	ldrh	r2, [r4, #14]
    407e:	80a0      	strh	r0, [r4, #4]
    4080:	72a1      	strb	r1, [r4, #10]
    4082:	81a2      	strh	r2, [r4, #12]
    4084:	81e3      	strh	r3, [r4, #14]
    4086:	210a      	movs	r1, #10
    4088:	0020      	movs	r0, r4
    408a:	f7ff fead 	bl	3de8 <sark_msg_send>
    408e:	0020      	movs	r0, r4
    4090:	f7ff fdc2 	bl	3c18 <sark_msg_free>
    4094:	e7b5      	b.n	4002 <sark_int+0x4a>
    4096:	2b02      	cmp	r3, #2
    4098:	d103      	bne.n	40a2 <sark_int+0xea>
    409a:	0020      	movs	r0, r4
    409c:	f7ff ff18 	bl	3ed0 <sark_cmd_read>
    40a0:	e7e7      	b.n	4072 <sark_int+0xba>
    40a2:	2b03      	cmp	r3, #3
    40a4:	d103      	bne.n	40ae <sark_int+0xf6>
    40a6:	0020      	movs	r0, r4
    40a8:	f7ff ff42 	bl	3f30 <sark_cmd_write>
    40ac:	e7e1      	b.n	4072 <sark_int+0xba>
    40ae:	2b05      	cmp	r3, #5
    40b0:	d103      	bne.n	40ba <sark_int+0x102>
    40b2:	0020      	movs	r0, r4
    40b4:	f7ff ff6e 	bl	3f94 <sark_cmd_fill>
    40b8:	e7db      	b.n	4072 <sark_int+0xba>
    40ba:	2383      	movs	r3, #131	; 0x83
    40bc:	e7cf      	b.n	405e <sark_int+0xa6>
    40be:	235b      	movs	r3, #91	; 0x5b
    40c0:	781b      	ldrb	r3, [r3, #0]
    40c2:	2b00      	cmp	r3, #0
    40c4:	d00f      	beq.n	40e6 <sark_int+0x12e>
    40c6:	4b14      	ldr	r3, [pc, #80]	; (4118 <sark_int+0x160>)
    40c8:	699b      	ldr	r3, [r3, #24]
    40ca:	2b00      	cmp	r3, #0
    40cc:	d0df      	beq.n	408e <sark_int+0xd6>
    40ce:	f7fc e87c 	blx	1c8 <cpu_int_disable>
    40d2:	096a      	lsrs	r2, r5, #5
    40d4:	0021      	movs	r1, r4
    40d6:	0006      	movs	r6, r0
    40d8:	2003      	movs	r0, #3
    40da:	f000 ff3f 	bl	4f5c <schedule_sysmode>
    40de:	0030      	movs	r0, r6
    40e0:	f7fc e87a 	blx	1d8 <cpu_int_restore>
    40e4:	e78d      	b.n	4002 <sark_int+0x4a>
    40e6:	4b0d      	ldr	r3, [pc, #52]	; (411c <sark_int+0x164>)
    40e8:	681a      	ldr	r2, [r3, #0]
    40ea:	2380      	movs	r3, #128	; 0x80
    40ec:	055b      	lsls	r3, r3, #21
    40ee:	421a      	tst	r2, r3
    40f0:	d0cd      	beq.n	408e <sark_int+0xd6>
    40f2:	4a07      	ldr	r2, [pc, #28]	; (4110 <sark_int+0x158>)
    40f4:	6294      	str	r4, [r2, #40]	; 0x28
    40f6:	4a07      	ldr	r2, [pc, #28]	; (4114 <sark_int+0x15c>)
    40f8:	6013      	str	r3, [r2, #0]
    40fa:	e782      	b.n	4002 <sark_int+0x4a>
    40fc:	0030      	movs	r0, r6
    40fe:	f7ff fdb5 	bl	3c6c <sark_shmsg_free>
    4102:	e77e      	b.n	4002 <sark_int+0x4a>
    4104:	00400530 	.word	0x00400530
    4108:	5ec00000 	.word	0x5ec00000
    410c:	e200000c 	.word	0xe200000c
    4110:	0040056c 	.word	0x0040056c
    4114:	1f000018 	.word	0x1f000018
    4118:	004007b0 	.word	0x004007b0
    411c:	1f000010 	.word	0x1f000010

00004120 <event_wait>:
    4120:	4b12      	ldr	r3, [pc, #72]	; (416c <event_wait+0x4c>)
    4122:	b570      	push	{r4, r5, r6, lr}
    4124:	681b      	ldr	r3, [r3, #0]
    4126:	4d12      	ldr	r5, [pc, #72]	; (4170 <event_wait+0x50>)
    4128:	2401      	movs	r4, #1
    412a:	409c      	lsls	r4, r3
    412c:	7eab      	ldrb	r3, [r5, #26]
    412e:	4e11      	ldr	r6, [pc, #68]	; (4174 <event_wait+0x54>)
    4130:	2b00      	cmp	r3, #0
    4132:	d011      	beq.n	4158 <event_wait+0x38>
    4134:	2009      	movs	r0, #9
    4136:	f7ff fd35 	bl	3ba4 <sark_cpu_state>
    413a:	6833      	ldr	r3, [r6, #0]
    413c:	0022      	movs	r2, r4
    413e:	439a      	bics	r2, r3
    4140:	d107      	bne.n	4152 <event_wait+0x32>
    4142:	7eaa      	ldrb	r2, [r5, #26]
    4144:	2301      	movs	r3, #1
    4146:	4053      	eors	r3, r2
    4148:	2007      	movs	r0, #7
    414a:	76ab      	strb	r3, [r5, #26]
    414c:	f7ff fd2a 	bl	3ba4 <sark_cpu_state>
    4150:	bd70      	pop	{r4, r5, r6, pc}
    4152:	f7fc e846 	blx	1e0 <cpu_wfi>
    4156:	e7f0      	b.n	413a <event_wait+0x1a>
    4158:	2008      	movs	r0, #8
    415a:	f7ff fd23 	bl	3ba4 <sark_cpu_state>
    415e:	6833      	ldr	r3, [r6, #0]
    4160:	4223      	tst	r3, r4
    4162:	d0ee      	beq.n	4142 <event_wait+0x22>
    4164:	f7fc e83c 	blx	1e0 <cpu_wfi>
    4168:	e7f9      	b.n	415e <event_wait+0x3e>
    416a:	46c0      	nop			; (mov r8, r8)
    416c:	00400530 	.word	0x00400530
    4170:	0040056c 	.word	0x0040056c
    4174:	e2000058 	.word	0xe2000058

00004178 <event_pause>:
    4178:	b570      	push	{r4, r5, r6, lr}
    417a:	1e05      	subs	r5, r0, #0
    417c:	4c08      	ldr	r4, [pc, #32]	; (41a0 <event_pause+0x28>)
    417e:	d00b      	beq.n	4198 <event_pause+0x20>
    4180:	2301      	movs	r3, #1
    4182:	200a      	movs	r0, #10
    4184:	7623      	strb	r3, [r4, #24]
    4186:	f7ff fd0d 	bl	3ba4 <sark_cpu_state>
    418a:	6b23      	ldr	r3, [r4, #48]	; 0x30
    418c:	2b00      	cmp	r3, #0
    418e:	d002      	beq.n	4196 <event_pause+0x1e>
    4190:	6b61      	ldr	r1, [r4, #52]	; 0x34
    4192:	0028      	movs	r0, r5
    4194:	4798      	blx	r3
    4196:	bd70      	pop	{r4, r5, r6, pc}
    4198:	7620      	strb	r0, [r4, #24]
    419a:	2007      	movs	r0, #7
    419c:	e7f3      	b.n	4186 <event_pause+0xe>
    419e:	46c0      	nop			; (mov r8, r8)
    41a0:	0040056c 	.word	0x0040056c

000041a4 <event_stop>:
    41a4:	4b03      	ldr	r3, [pc, #12]	; (41b4 <event_stop+0x10>)
    41a6:	2202      	movs	r2, #2
    41a8:	761a      	strb	r2, [r3, #24]
    41aa:	4a03      	ldr	r2, [pc, #12]	; (41b8 <event_stop+0x14>)
    41ac:	6cd9      	ldr	r1, [r3, #76]	; 0x4c
    41ae:	6011      	str	r1, [r2, #0]
    41b0:	6398      	str	r0, [r3, #56]	; 0x38
    41b2:	4770      	bx	lr
    41b4:	0040056c 	.word	0x0040056c
    41b8:	1f000014 	.word	0x1f000014

000041bc <event_alloc>:
    41bc:	b570      	push	{r4, r5, r6, lr}
    41be:	2118      	movs	r1, #24
    41c0:	0006      	movs	r6, r0
    41c2:	f000 f8db 	bl	437c <sark_alloc>
    41c6:	4d0b      	ldr	r5, [pc, #44]	; (41f4 <event_alloc+0x38>)
    41c8:	1e04      	subs	r4, r0, #0
    41ca:	d00d      	beq.n	41e8 <event_alloc+0x2c>
    41cc:	0031      	movs	r1, r6
    41ce:	2218      	movs	r2, #24
    41d0:	f7ff fcfa 	bl	3bc8 <sark_block_init>
    41d4:	0006      	movs	r6, r0
    41d6:	f7fb eff8 	blx	1c8 <cpu_int_disable>
    41da:	682b      	ldr	r3, [r5, #0]
    41dc:	6033      	str	r3, [r6, #0]
    41de:	602c      	str	r4, [r5, #0]
    41e0:	f7fb effa 	blx	1d8 <cpu_int_restore>
    41e4:	2001      	movs	r0, #1
    41e6:	bd70      	pop	{r4, r5, r6, pc}
    41e8:	696a      	ldr	r2, [r5, #20]
    41ea:	2308      	movs	r3, #8
    41ec:	4313      	orrs	r3, r2
    41ee:	616b      	str	r3, [r5, #20]
    41f0:	e7f9      	b.n	41e6 <event_alloc+0x2a>
    41f2:	46c0      	nop			; (mov r8, r8)
    41f4:	0040056c 	.word	0x0040056c

000041f8 <sark_vic_init>:
    41f8:	4b0b      	ldr	r3, [pc, #44]	; (4228 <sark_vic_init+0x30>)
    41fa:	2201      	movs	r2, #1
    41fc:	4252      	negs	r2, r2
    41fe:	b510      	push	{r4, lr}
    4200:	601a      	str	r2, [r3, #0]
    4202:	4b0a      	ldr	r3, [pc, #40]	; (422c <sark_vic_init+0x34>)
    4204:	2200      	movs	r2, #0
    4206:	601a      	str	r2, [r3, #0]
    4208:	4b09      	ldr	r3, [pc, #36]	; (4230 <sark_vic_init+0x38>)
    420a:	4c0a      	ldr	r4, [pc, #40]	; (4234 <sark_vic_init+0x3c>)
    420c:	601a      	str	r2, [r3, #0]
    420e:	490a      	ldr	r1, [pc, #40]	; (4238 <sark_vic_init+0x40>)
    4210:	4b0a      	ldr	r3, [pc, #40]	; (423c <sark_vic_init+0x44>)
    4212:	1e58      	subs	r0, r3, #1
    4214:	601a      	str	r2, [r3, #0]
    4216:	38ff      	subs	r0, #255	; 0xff
    4218:	3304      	adds	r3, #4
    421a:	6004      	str	r4, [r0, #0]
    421c:	428b      	cmp	r3, r1
    421e:	d1f8      	bne.n	4212 <sark_vic_init+0x1a>
    4220:	4b07      	ldr	r3, [pc, #28]	; (4240 <sark_vic_init+0x48>)
    4222:	4a08      	ldr	r2, [pc, #32]	; (4244 <sark_vic_init+0x4c>)
    4224:	601a      	str	r2, [r3, #0]
    4226:	bd10      	pop	{r4, pc}
    4228:	1f000014 	.word	0x1f000014
    422c:	1f00000c 	.word	0x1f00000c
    4230:	1f000030 	.word	0x1f000030
    4234:	00000108 	.word	0x00000108
    4238:	1f000240 	.word	0x1f000240
    423c:	1f000200 	.word	0x1f000200
    4240:	1f000034 	.word	0x1f000034
    4244:	00000330 	.word	0x00000330

00004248 <sark_vic_set>:
    4248:	b510      	push	{r4, lr}
    424a:	2810      	cmp	r0, #16
    424c:	d10b      	bne.n	4266 <sark_vic_set+0x1e>
    424e:	62c3      	str	r3, [r0, #44]	; 0x2c
    4250:	2301      	movs	r3, #1
    4252:	480a      	ldr	r0, [pc, #40]	; (427c <sark_vic_set+0x34>)
    4254:	408b      	lsls	r3, r1
    4256:	6003      	str	r3, [r0, #0]
    4258:	2a00      	cmp	r2, #0
    425a:	d003      	beq.n	4264 <sark_vic_set+0x1c>
    425c:	2301      	movs	r3, #1
    425e:	4a08      	ldr	r2, [pc, #32]	; (4280 <sark_vic_set+0x38>)
    4260:	408b      	lsls	r3, r1
    4262:	6013      	str	r3, [r2, #0]
    4264:	bd10      	pop	{r4, pc}
    4266:	3040      	adds	r0, #64	; 0x40
    4268:	24f8      	movs	r4, #248	; 0xf8
    426a:	0080      	lsls	r0, r0, #2
    426c:	0564      	lsls	r4, r4, #21
    426e:	1904      	adds	r4, r0, r4
    4270:	6023      	str	r3, [r4, #0]
    4272:	4b04      	ldr	r3, [pc, #16]	; (4284 <sark_vic_set+0x3c>)
    4274:	18c0      	adds	r0, r0, r3
    4276:	2320      	movs	r3, #32
    4278:	430b      	orrs	r3, r1
    427a:	e7ec      	b.n	4256 <sark_vic_set+0xe>
    427c:	1f00000c 	.word	0x1f00000c
    4280:	1f000010 	.word	0x1f000010
    4284:	1f000100 	.word	0x1f000100

00004288 <sark_fiq_han>:
    4288:	e92d000c 	push	{r2, r3}
    428c:	e59f2018 	ldr	r2, [pc, #24]	; 42ac <sark_fiq_han+0x24>
    4290:	e3a03202 	mov	r3, #536870912	; 0x20000000
    4294:	e5933014 	ldr	r3, [r3, #20]
    4298:	e5923038 	ldr	r3, [r2, #56]	; 0x38
    429c:	e2833001 	add	r3, r3, #1
    42a0:	e5823038 	str	r3, [r2, #56]	; 0x38
    42a4:	e8bd000c 	pop	{r2, r3}
    42a8:	e25ef004 	subs	pc, lr, #4
    42ac:	00400530 	.word	0x00400530

000042b0 <sark_xalloc>:
    42b0:	b5f7      	push	{r0, r1, r2, r4, r5, r6, r7, lr}
    42b2:	0006      	movs	r6, r0
    42b4:	0017      	movs	r7, r2
    42b6:	2900      	cmp	r1, #0
    42b8:	d101      	bne.n	42be <sark_xalloc+0xe>
    42ba:	2000      	movs	r0, #0
    42bc:	e056      	b.n	436c <sark_xalloc+0xbc>
    42be:	2aff      	cmp	r2, #255	; 0xff
    42c0:	d8fb      	bhi.n	42ba <sark_xalloc+0xa>
    42c2:	0a1d      	lsrs	r5, r3, #8
    42c4:	079a      	lsls	r2, r3, #30
    42c6:	d401      	bmi.n	42cc <sark_xalloc+0x1c>
    42c8:	225c      	movs	r2, #92	; 0x5c
    42ca:	7815      	ldrb	r5, [r2, #0]
    42cc:	022d      	lsls	r5, r5, #8
    42ce:	19ed      	adds	r5, r5, r7
    42d0:	2f00      	cmp	r7, #0
    42d2:	d005      	beq.n	42e0 <sark_xalloc+0x30>
    42d4:	4a27      	ldr	r2, [pc, #156]	; (4374 <sark_xalloc+0xc4>)
    42d6:	00a8      	lsls	r0, r5, #2
    42d8:	6812      	ldr	r2, [r2, #0]
    42da:	5882      	ldr	r2, [r0, r2]
    42dc:	2a00      	cmp	r2, #0
    42de:	d1ec      	bne.n	42ba <sark_xalloc+0xa>
    42e0:	2203      	movs	r2, #3
    42e2:	3103      	adds	r1, #3
    42e4:	4391      	bics	r1, r2
    42e6:	3a02      	subs	r2, #2
    42e8:	3108      	adds	r1, #8
    42ea:	4013      	ands	r3, r2
    42ec:	9101      	str	r1, [sp, #4]
    42ee:	9300      	str	r3, [sp, #0]
    42f0:	d003      	beq.n	42fa <sark_xalloc+0x4a>
    42f2:	2006      	movs	r0, #6
    42f4:	f7fb ef78 	blx	1e8 <sark_lock_get>
    42f8:	4684      	mov	ip, r0
    42fa:	6834      	ldr	r4, [r6, #0]
    42fc:	2200      	movs	r2, #0
    42fe:	2c00      	cmp	r4, #0
    4300:	d107      	bne.n	4312 <sark_xalloc+0x62>
    4302:	9b00      	ldr	r3, [sp, #0]
    4304:	2b00      	cmp	r3, #0
    4306:	d0d8      	beq.n	42ba <sark_xalloc+0xa>
    4308:	2106      	movs	r1, #6
    430a:	4660      	mov	r0, ip
    430c:	f7fb ef7e 	blx	20c <sark_lock_free>
    4310:	e7d3      	b.n	42ba <sark_xalloc+0xa>
    4312:	9b01      	ldr	r3, [sp, #4]
    4314:	6821      	ldr	r1, [r4, #0]
    4316:	18e3      	adds	r3, r4, r3
    4318:	429c      	cmp	r4, r3
    431a:	d2f2      	bcs.n	4302 <sark_xalloc+0x52>
    431c:	4299      	cmp	r1, r3
    431e:	d202      	bcs.n	4326 <sark_xalloc+0x76>
    4320:	0022      	movs	r2, r4
    4322:	6864      	ldr	r4, [r4, #4]
    4324:	e7eb      	b.n	42fe <sark_xalloc+0x4e>
    4326:	0018      	movs	r0, r3
    4328:	3008      	adds	r0, #8
    432a:	4281      	cmp	r1, r0
    432c:	d904      	bls.n	4338 <sark_xalloc+0x88>
    432e:	6019      	str	r1, [r3, #0]
    4330:	6861      	ldr	r1, [r4, #4]
    4332:	6023      	str	r3, [r4, #0]
    4334:	6059      	str	r1, [r3, #4]
    4336:	6063      	str	r3, [r4, #4]
    4338:	6863      	ldr	r3, [r4, #4]
    433a:	2a00      	cmp	r2, #0
    433c:	d017      	beq.n	436e <sark_xalloc+0xbe>
    433e:	6053      	str	r3, [r2, #4]
    4340:	68f3      	ldr	r3, [r6, #12]
    4342:	9a01      	ldr	r2, [sp, #4]
    4344:	1a99      	subs	r1, r3, r2
    4346:	9b00      	ldr	r3, [sp, #0]
    4348:	60f1      	str	r1, [r6, #12]
    434a:	2b00      	cmp	r3, #0
    434c:	d003      	beq.n	4356 <sark_xalloc+0xa6>
    434e:	2106      	movs	r1, #6
    4350:	4660      	mov	r0, ip
    4352:	f7fb ef5c 	blx	20c <sark_lock_free>
    4356:	4b08      	ldr	r3, [pc, #32]	; (4378 <sark_xalloc+0xc8>)
    4358:	0020      	movs	r0, r4
    435a:	18eb      	adds	r3, r5, r3
    435c:	6063      	str	r3, [r4, #4]
    435e:	3008      	adds	r0, #8
    4360:	2f00      	cmp	r7, #0
    4362:	d003      	beq.n	436c <sark_xalloc+0xbc>
    4364:	4b03      	ldr	r3, [pc, #12]	; (4374 <sark_xalloc+0xc4>)
    4366:	00ad      	lsls	r5, r5, #2
    4368:	681b      	ldr	r3, [r3, #0]
    436a:	50e8      	str	r0, [r5, r3]
    436c:	bdfe      	pop	{r1, r2, r3, r4, r5, r6, r7, pc}
    436e:	6033      	str	r3, [r6, #0]
    4370:	e7e6      	b.n	4340 <sark_xalloc+0x90>
    4372:	46c0      	nop			; (mov r8, r8)
    4374:	e5007fdc 	.word	0xe5007fdc
    4378:	ffff0000 	.word	0xffff0000

0000437c <sark_alloc>:
    437c:	4341      	muls	r1, r0
    437e:	4804      	ldr	r0, [pc, #16]	; (4390 <sark_alloc+0x14>)
    4380:	2300      	movs	r3, #0
    4382:	b510      	push	{r4, lr}
    4384:	001a      	movs	r2, r3
    4386:	6980      	ldr	r0, [r0, #24]
    4388:	f7ff ff92 	bl	42b0 <sark_xalloc>
    438c:	bd10      	pop	{r4, pc}
    438e:	46c0      	nop			; (mov r8, r8)
    4390:	00400530 	.word	0x00400530

00004394 <sark_xfree>:
    4394:	b5f7      	push	{r0, r1, r2, r4, r5, r6, r7, lr}
    4396:	0006      	movs	r6, r0
    4398:	000c      	movs	r4, r1
    439a:	0015      	movs	r5, r2
    439c:	2900      	cmp	r1, #0
    439e:	d102      	bne.n	43a6 <sark_xfree+0x12>
    43a0:	2010      	movs	r0, #16
    43a2:	f7fb eec4 	blx	12c <rt_error>
    43a6:	2301      	movs	r3, #1
    43a8:	401d      	ands	r5, r3
    43aa:	d003      	beq.n	43b4 <sark_xfree+0x20>
    43ac:	2006      	movs	r0, #6
    43ae:	f7fb ef1c 	blx	1e8 <sark_lock_get>
    43b2:	9001      	str	r0, [sp, #4]
    43b4:	0021      	movs	r1, r4
    43b6:	3908      	subs	r1, #8
    43b8:	684a      	ldr	r2, [r1, #4]
    43ba:	6833      	ldr	r3, [r6, #0]
    43bc:	0610      	lsls	r0, r2, #24
    43be:	0e00      	lsrs	r0, r0, #24
    43c0:	d006      	beq.n	43d0 <sark_xfree+0x3c>
    43c2:	481c      	ldr	r0, [pc, #112]	; (4434 <sark_xfree+0xa0>)
    43c4:	0412      	lsls	r2, r2, #16
    43c6:	0c12      	lsrs	r2, r2, #16
    43c8:	6800      	ldr	r0, [r0, #0]
    43ca:	0092      	lsls	r2, r2, #2
    43cc:	2700      	movs	r7, #0
    43ce:	5017      	str	r7, [r2, r0]
    43d0:	3c08      	subs	r4, #8
    43d2:	6820      	ldr	r0, [r4, #0]
    43d4:	68f7      	ldr	r7, [r6, #12]
    43d6:	1a42      	subs	r2, r0, r1
    43d8:	18ba      	adds	r2, r7, r2
    43da:	60f2      	str	r2, [r6, #12]
    43dc:	2200      	movs	r2, #0
    43de:	2b00      	cmp	r3, #0
    43e0:	d10d      	bne.n	43fe <sark_xfree+0x6a>
    43e2:	6063      	str	r3, [r4, #4]
    43e4:	2a00      	cmp	r2, #0
    43e6:	d00f      	beq.n	4408 <sark_xfree+0x74>
    43e8:	6051      	str	r1, [r2, #4]
    43ea:	2b00      	cmp	r3, #0
    43ec:	d116      	bne.n	441c <sark_xfree+0x88>
    43ee:	6813      	ldr	r3, [r2, #0]
    43f0:	4299      	cmp	r1, r3
    43f2:	d10c      	bne.n	440e <sark_xfree+0x7a>
    43f4:	6823      	ldr	r3, [r4, #0]
    43f6:	6013      	str	r3, [r2, #0]
    43f8:	6863      	ldr	r3, [r4, #4]
    43fa:	6053      	str	r3, [r2, #4]
    43fc:	e007      	b.n	440e <sark_xfree+0x7a>
    43fe:	428b      	cmp	r3, r1
    4400:	d8ef      	bhi.n	43e2 <sark_xfree+0x4e>
    4402:	001a      	movs	r2, r3
    4404:	685b      	ldr	r3, [r3, #4]
    4406:	e7ea      	b.n	43de <sark_xfree+0x4a>
    4408:	6031      	str	r1, [r6, #0]
    440a:	2b00      	cmp	r3, #0
    440c:	d10f      	bne.n	442e <sark_xfree+0x9a>
    440e:	2d00      	cmp	r5, #0
    4410:	d003      	beq.n	441a <sark_xfree+0x86>
    4412:	2106      	movs	r1, #6
    4414:	9801      	ldr	r0, [sp, #4]
    4416:	f7fb eefa 	blx	20c <sark_lock_free>
    441a:	bdf7      	pop	{r0, r1, r2, r4, r5, r6, r7, pc}
    441c:	4298      	cmp	r0, r3
    441e:	d1e6      	bne.n	43ee <sark_xfree+0x5a>
    4420:	6803      	ldr	r3, [r0, #0]
    4422:	6023      	str	r3, [r4, #0]
    4424:	6843      	ldr	r3, [r0, #4]
    4426:	6063      	str	r3, [r4, #4]
    4428:	2a00      	cmp	r2, #0
    442a:	d1e0      	bne.n	43ee <sark_xfree+0x5a>
    442c:	e7ef      	b.n	440e <sark_xfree+0x7a>
    442e:	4298      	cmp	r0, r3
    4430:	d1ed      	bne.n	440e <sark_xfree+0x7a>
    4432:	e7f5      	b.n	4420 <sark_xfree+0x8c>
    4434:	e5007fdc 	.word	0xe5007fdc

00004438 <sark_heap_max>:
    4438:	b570      	push	{r4, r5, r6, lr}
    443a:	2501      	movs	r5, #1
    443c:	6804      	ldr	r4, [r0, #0]
    443e:	400d      	ands	r5, r1
    4440:	d003      	beq.n	444a <sark_heap_max+0x12>
    4442:	2006      	movs	r0, #6
    4444:	f7fb eed0 	blx	1e8 <sark_lock_get>
    4448:	0002      	movs	r2, r0
    444a:	2600      	movs	r6, #0
    444c:	2c00      	cmp	r4, #0
    444e:	d107      	bne.n	4460 <sark_heap_max+0x28>
    4450:	2d00      	cmp	r5, #0
    4452:	d003      	beq.n	445c <sark_heap_max+0x24>
    4454:	2106      	movs	r1, #6
    4456:	0010      	movs	r0, r2
    4458:	f7fb eed8 	blx	20c <sark_lock_free>
    445c:	0030      	movs	r0, r6
    445e:	bd70      	pop	{r4, r5, r6, pc}
    4460:	6823      	ldr	r3, [r4, #0]
    4462:	2b00      	cmp	r3, #0
    4464:	d004      	beq.n	4470 <sark_heap_max+0x38>
    4466:	1b1b      	subs	r3, r3, r4
    4468:	3b08      	subs	r3, #8
    446a:	429e      	cmp	r6, r3
    446c:	d200      	bcs.n	4470 <sark_heap_max+0x38>
    446e:	001e      	movs	r6, r3
    4470:	6864      	ldr	r4, [r4, #4]
    4472:	e7eb      	b.n	444c <sark_heap_max+0x14>

00004474 <sark_heap_init>:
    4474:	0003      	movs	r3, r0
    4476:	3908      	subs	r1, #8
    4478:	3310      	adds	r3, #16
    447a:	6043      	str	r3, [r0, #4]
    447c:	6003      	str	r3, [r0, #0]
    447e:	1acb      	subs	r3, r1, r3
    4480:	3b08      	subs	r3, #8
    4482:	60c3      	str	r3, [r0, #12]
    4484:	2300      	movs	r3, #0
    4486:	6101      	str	r1, [r0, #16]
    4488:	6081      	str	r1, [r0, #8]
    448a:	600b      	str	r3, [r1, #0]
    448c:	6143      	str	r3, [r0, #20]
    448e:	604b      	str	r3, [r1, #4]
    4490:	4770      	bx	lr
	...

00004494 <sark_tag_ptr>:
    4494:	2900      	cmp	r1, #0
    4496:	d101      	bne.n	449c <sark_tag_ptr+0x8>
    4498:	235c      	movs	r3, #92	; 0x5c
    449a:	7819      	ldrb	r1, [r3, #0]
    449c:	4b03      	ldr	r3, [pc, #12]	; (44ac <sark_tag_ptr+0x18>)
    449e:	0209      	lsls	r1, r1, #8
    44a0:	1809      	adds	r1, r1, r0
    44a2:	681b      	ldr	r3, [r3, #0]
    44a4:	0089      	lsls	r1, r1, #2
    44a6:	58c8      	ldr	r0, [r1, r3]
    44a8:	4770      	bx	lr
    44aa:	46c0      	nop			; (mov r8, r8)
    44ac:	e5007fdc 	.word	0xe5007fdc

000044b0 <io_buf_init>:
    44b0:	b570      	push	{r4, r5, r6, lr}
    44b2:	4d0c      	ldr	r5, [pc, #48]	; (44e4 <io_buf_init+0x34>)
    44b4:	2301      	movs	r3, #1
    44b6:	6d29      	ldr	r1, [r5, #80]	; 0x50
    44b8:	2200      	movs	r2, #0
    44ba:	3110      	adds	r1, #16
    44bc:	6ce8      	ldr	r0, [r5, #76]	; 0x4c
    44be:	f7ff fef7 	bl	42b0 <sark_xalloc>
    44c2:	1e04      	subs	r4, r0, #0
    44c4:	d102      	bne.n	44cc <io_buf_init+0x1c>
    44c6:	200e      	movs	r0, #14
    44c8:	f7fb ee30 	blx	12c <rt_error>
    44cc:	69eb      	ldr	r3, [r5, #28]
    44ce:	6063      	str	r3, [r4, #4]
    44d0:	4a05      	ldr	r2, [pc, #20]	; (44e8 <io_buf_init+0x38>)
    44d2:	8b2b      	ldrh	r3, [r5, #24]
    44d4:	60a3      	str	r3, [r4, #8]
    44d6:	2300      	movs	r3, #0
    44d8:	0020      	movs	r0, r4
    44da:	6023      	str	r3, [r4, #0]
    44dc:	6013      	str	r3, [r2, #0]
    44de:	60e3      	str	r3, [r4, #12]
    44e0:	bd70      	pop	{r4, r5, r6, pc}
    44e2:	46c0      	nop			; (mov r8, r8)
    44e4:	e5007f00 	.word	0xe5007f00
    44e8:	004001e8 	.word	0x004001e8

000044ec <io_put_char>:
    44ec:	b570      	push	{r4, r5, r6, lr}
    44ee:	000d      	movs	r5, r1
    44f0:	2803      	cmp	r0, #3
    44f2:	d907      	bls.n	4504 <io_put_char+0x18>
    44f4:	4932      	ldr	r1, [pc, #200]	; (45c0 <io_put_char+0xd4>)
    44f6:	680a      	ldr	r2, [r1, #0]
    44f8:	1c53      	adds	r3, r2, #1
    44fa:	5485      	strb	r5, [r0, r2]
    44fc:	2200      	movs	r2, #0
    44fe:	600b      	str	r3, [r1, #0]
    4500:	54c2      	strb	r2, [r0, r3]
    4502:	bd70      	pop	{r4, r5, r6, pc}
    4504:	2800      	cmp	r0, #0
    4506:	d136      	bne.n	4576 <io_put_char+0x8a>
    4508:	4e2e      	ldr	r6, [pc, #184]	; (45c4 <io_put_char+0xd8>)
    450a:	6833      	ldr	r3, [r6, #0]
    450c:	2b00      	cmp	r3, #0
    450e:	d11c      	bne.n	454a <io_put_char+0x5e>
    4510:	2192      	movs	r1, #146	; 0x92
    4512:	0049      	lsls	r1, r1, #1
    4514:	3001      	adds	r0, #1
    4516:	f7ff ff31 	bl	437c <sark_alloc>
    451a:	1e04      	subs	r4, r0, #0
    451c:	d102      	bne.n	4524 <io_put_char+0x38>
    451e:	200e      	movs	r0, #14
    4520:	f7fb ee04 	blx	12c <rt_error>
    4524:	2307      	movs	r3, #7
    4526:	7223      	strb	r3, [r4, #8]
    4528:	2300      	movs	r3, #0
    452a:	7263      	strb	r3, [r4, #9]
    452c:	33ff      	adds	r3, #255	; 0xff
    452e:	72a3      	strb	r3, [r4, #10]
    4530:	4b25      	ldr	r3, [pc, #148]	; (45c8 <io_put_char+0xdc>)
    4532:	889a      	ldrh	r2, [r3, #4]
    4534:	81a2      	strh	r2, [r4, #12]
    4536:	4a25      	ldr	r2, [pc, #148]	; (45cc <io_put_char+0xe0>)
    4538:	6812      	ldr	r2, [r2, #0]
    453a:	72e2      	strb	r2, [r4, #11]
    453c:	881b      	ldrh	r3, [r3, #0]
    453e:	81e3      	strh	r3, [r4, #14]
    4540:	2340      	movs	r3, #64	; 0x40
    4542:	8223      	strh	r3, [r4, #16]
    4544:	3b34      	subs	r3, #52	; 0x34
    4546:	80a3      	strh	r3, [r4, #4]
    4548:	6034      	str	r4, [r6, #0]
    454a:	6830      	ldr	r0, [r6, #0]
    454c:	8883      	ldrh	r3, [r0, #4]
    454e:	1c5a      	adds	r2, r3, #1
    4550:	18c3      	adds	r3, r0, r3
    4552:	8082      	strh	r2, [r0, #4]
    4554:	721d      	strb	r5, [r3, #8]
    4556:	2d0a      	cmp	r5, #10
    4558:	d006      	beq.n	4568 <io_put_char+0x7c>
    455a:	2d00      	cmp	r5, #0
    455c:	d004      	beq.n	4568 <io_put_char+0x7c>
    455e:	8882      	ldrh	r2, [r0, #4]
    4560:	2386      	movs	r3, #134	; 0x86
    4562:	005b      	lsls	r3, r3, #1
    4564:	429a      	cmp	r2, r3
    4566:	d1cc      	bne.n	4502 <io_put_char+0x16>
    4568:	210a      	movs	r1, #10
    456a:	f7ff fc3d 	bl	3de8 <sark_msg_send>
    456e:	6833      	ldr	r3, [r6, #0]
    4570:	220c      	movs	r2, #12
    4572:	809a      	strh	r2, [r3, #4]
    4574:	e7c5      	b.n	4502 <io_put_char+0x16>
    4576:	2802      	cmp	r0, #2
    4578:	d1c3      	bne.n	4502 <io_put_char+0x16>
    457a:	4c15      	ldr	r4, [pc, #84]	; (45d0 <io_put_char+0xe4>)
    457c:	6823      	ldr	r3, [r4, #0]
    457e:	2b00      	cmp	r3, #0
    4580:	d105      	bne.n	458e <io_put_char+0xa2>
    4582:	4b12      	ldr	r3, [pc, #72]	; (45cc <io_put_char+0xe0>)
    4584:	69de      	ldr	r6, [r3, #28]
    4586:	f7ff ff93 	bl	44b0 <io_buf_init>
    458a:	65b0      	str	r0, [r6, #88]	; 0x58
    458c:	6020      	str	r0, [r4, #0]
    458e:	4911      	ldr	r1, [pc, #68]	; (45d4 <io_put_char+0xe8>)
    4590:	6826      	ldr	r6, [r4, #0]
    4592:	680a      	ldr	r2, [r1, #0]
    4594:	1c53      	adds	r3, r2, #1
    4596:	18b2      	adds	r2, r6, r2
    4598:	7415      	strb	r5, [r2, #16]
    459a:	4a0b      	ldr	r2, [pc, #44]	; (45c8 <io_put_char+0xdc>)
    459c:	600b      	str	r3, [r1, #0]
    459e:	6d12      	ldr	r2, [r2, #80]	; 0x50
    45a0:	4293      	cmp	r3, r2
    45a2:	d107      	bne.n	45b4 <io_put_char+0xc8>
    45a4:	60f3      	str	r3, [r6, #12]
    45a6:	f7ff ff83 	bl	44b0 <io_buf_init>
    45aa:	6823      	ldr	r3, [r4, #0]
    45ac:	6030      	str	r0, [r6, #0]
    45ae:	681b      	ldr	r3, [r3, #0]
    45b0:	6023      	str	r3, [r4, #0]
    45b2:	e7a6      	b.n	4502 <io_put_char+0x16>
    45b4:	2d0a      	cmp	r5, #10
    45b6:	d001      	beq.n	45bc <io_put_char+0xd0>
    45b8:	2d00      	cmp	r5, #0
    45ba:	d1a2      	bne.n	4502 <io_put_char+0x16>
    45bc:	60f3      	str	r3, [r6, #12]
    45be:	e7a0      	b.n	4502 <io_put_char+0x16>
    45c0:	004001f4 	.word	0x004001f4
    45c4:	004001f0 	.word	0x004001f0
    45c8:	e5007f00 	.word	0xe5007f00
    45cc:	00400530 	.word	0x00400530
    45d0:	004001ec 	.word	0x004001ec
    45d4:	004001e8 	.word	0x004001e8

000045d8 <io_put_fixed>:
    45d8:	b5f0      	push	{r4, r5, r6, r7, lr}
    45da:	b08d      	sub	sp, #52	; 0x34
    45dc:	9001      	str	r0, [sp, #4]
    45de:	0017      	movs	r7, r2
    45e0:	2b0c      	cmp	r3, #12
    45e2:	d900      	bls.n	45e6 <io_put_fixed+0xe>
    45e4:	230c      	movs	r3, #12
    45e6:	aa05      	add	r2, sp, #20
    45e8:	4694      	mov	ip, r2
    45ea:	0008      	movs	r0, r1
    45ec:	2400      	movs	r4, #0
    45ee:	449c      	add	ip, r3
    45f0:	0400      	lsls	r0, r0, #16
    45f2:	0c00      	lsrs	r0, r0, #16
    45f4:	220a      	movs	r2, #10
    45f6:	4342      	muls	r2, r0
    45f8:	0010      	movs	r0, r2
    45fa:	429c      	cmp	r4, r3
    45fc:	d11f      	bne.n	463e <io_put_fixed+0x66>
    45fe:	0c10      	lsrs	r0, r2, #16
    4600:	2204      	movs	r2, #4
    4602:	4282      	cmp	r2, r0
    4604:	4192      	sbcs	r2, r2
    4606:	2530      	movs	r5, #48	; 0x30
    4608:	4252      	negs	r2, r2
    460a:	2000      	movs	r0, #0
    460c:	ae05      	add	r6, sp, #20
    460e:	46ac      	mov	ip, r5
    4610:	2a00      	cmp	r2, #0
    4612:	d001      	beq.n	4618 <io_put_fixed+0x40>
    4614:	4283      	cmp	r3, r0
    4616:	d119      	bne.n	464c <io_put_fixed+0x74>
    4618:	2b00      	cmp	r3, #0
    461a:	d002      	beq.n	4622 <io_put_fixed+0x4a>
    461c:	232e      	movs	r3, #46	; 0x2e
    461e:	5533      	strb	r3, [r6, r4]
    4620:	3401      	adds	r4, #1
    4622:	0c09      	lsrs	r1, r1, #16
    4624:	1851      	adds	r1, r2, r1
    4626:	a803      	add	r0, sp, #12
    4628:	f7fb ee52 	blx	2d0 <sark_div10>
    462c:	9b04      	ldr	r3, [sp, #16]
    462e:	9903      	ldr	r1, [sp, #12]
    4630:	3330      	adds	r3, #48	; 0x30
    4632:	1c65      	adds	r5, r4, #1
    4634:	5533      	strb	r3, [r6, r4]
    4636:	2900      	cmp	r1, #0
    4638:	d013      	beq.n	4662 <io_put_fixed+0x8a>
    463a:	002c      	movs	r4, r5
    463c:	e7f3      	b.n	4626 <io_put_fixed+0x4e>
    463e:	3401      	adds	r4, #1
    4640:	0c02      	lsrs	r2, r0, #16
    4642:	4266      	negs	r6, r4
    4644:	3230      	adds	r2, #48	; 0x30
    4646:	4665      	mov	r5, ip
    4648:	55aa      	strb	r2, [r5, r6]
    464a:	e7d1      	b.n	45f0 <io_put_fixed+0x18>
    464c:	5c35      	ldrb	r5, [r6, r0]
    464e:	2d38      	cmp	r5, #56	; 0x38
    4650:	d903      	bls.n	465a <io_put_fixed+0x82>
    4652:	4665      	mov	r5, ip
    4654:	5435      	strb	r5, [r6, r0]
    4656:	3001      	adds	r0, #1
    4658:	e7da      	b.n	4610 <io_put_fixed+0x38>
    465a:	3501      	adds	r5, #1
    465c:	5435      	strb	r5, [r6, r0]
    465e:	2200      	movs	r2, #0
    4660:	e7f9      	b.n	4656 <io_put_fixed+0x7e>
    4662:	9b13      	ldr	r3, [sp, #76]	; 0x4c
    4664:	2b00      	cmp	r3, #0
    4666:	d002      	beq.n	466e <io_put_fixed+0x96>
    4668:	232d      	movs	r3, #45	; 0x2d
    466a:	5573      	strb	r3, [r6, r5]
    466c:	1ca5      	adds	r5, r4, #2
    466e:	1c6b      	adds	r3, r5, #1
    4670:	42bb      	cmp	r3, r7
    4672:	d308      	bcc.n	4686 <io_put_fixed+0xae>
    4674:	3d01      	subs	r5, #1
    4676:	5d71      	ldrb	r1, [r6, r5]
    4678:	9801      	ldr	r0, [sp, #4]
    467a:	f7ff ff37 	bl	44ec <io_put_char>
    467e:	2d00      	cmp	r5, #0
    4680:	d1f8      	bne.n	4674 <io_put_fixed+0x9c>
    4682:	b00d      	add	sp, #52	; 0x34
    4684:	bdf0      	pop	{r4, r5, r6, r7, pc}
    4686:	9912      	ldr	r1, [sp, #72]	; 0x48
    4688:	9801      	ldr	r0, [sp, #4]
    468a:	f7ff ff2f 	bl	44ec <io_put_char>
    468e:	3f01      	subs	r7, #1
    4690:	e7ed      	b.n	466e <io_put_fixed+0x96>
	...

00004694 <io_printf>:
    4694:	b40e      	push	{r1, r2, r3}
    4696:	b5f0      	push	{r4, r5, r6, r7, lr}
    4698:	0004      	movs	r4, r0
    469a:	b08c      	sub	sp, #48	; 0x30
    469c:	2803      	cmp	r0, #3
    469e:	d051      	beq.n	4744 <io_printf+0xb0>
    46a0:	d903      	bls.n	46aa <io_printf+0x16>
    46a2:	4a9d      	ldr	r2, [pc, #628]	; (4918 <io_printf+0x284>)
    46a4:	2300      	movs	r3, #0
    46a6:	7003      	strb	r3, [r0, #0]
    46a8:	6013      	str	r3, [r2, #0]
    46aa:	ab12      	add	r3, sp, #72	; 0x48
    46ac:	9305      	str	r3, [sp, #20]
    46ae:	9b11      	ldr	r3, [sp, #68]	; 0x44
    46b0:	7819      	ldrb	r1, [r3, #0]
    46b2:	2900      	cmp	r1, #0
    46b4:	d046      	beq.n	4744 <io_printf+0xb0>
    46b6:	2925      	cmp	r1, #37	; 0x25
    46b8:	d005      	beq.n	46c6 <io_printf+0x32>
    46ba:	3301      	adds	r3, #1
    46bc:	9311      	str	r3, [sp, #68]	; 0x44
    46be:	0020      	movs	r0, r4
    46c0:	f7ff ff14 	bl	44ec <io_put_char>
    46c4:	e7f3      	b.n	46ae <io_printf+0x1a>
    46c6:	9b11      	ldr	r3, [sp, #68]	; 0x44
    46c8:	7859      	ldrb	r1, [r3, #1]
    46ca:	1c9a      	adds	r2, r3, #2
    46cc:	2900      	cmp	r1, #0
    46ce:	d039      	beq.n	4744 <io_printf+0xb0>
    46d0:	2320      	movs	r3, #32
    46d2:	9303      	str	r3, [sp, #12]
    46d4:	2930      	cmp	r1, #48	; 0x30
    46d6:	d100      	bne.n	46da <io_printf+0x46>
    46d8:	9103      	str	r1, [sp, #12]
    46da:	2700      	movs	r7, #0
    46dc:	000b      	movs	r3, r1
    46de:	3b30      	subs	r3, #48	; 0x30
    46e0:	9211      	str	r2, [sp, #68]	; 0x44
    46e2:	2b09      	cmp	r3, #9
    46e4:	d924      	bls.n	4730 <io_printf+0x9c>
    46e6:	2306      	movs	r3, #6
    46e8:	292e      	cmp	r1, #46	; 0x2e
    46ea:	d109      	bne.n	4700 <io_printf+0x6c>
    46ec:	7811      	ldrb	r1, [r2, #0]
    46ee:	2300      	movs	r3, #0
    46f0:	3201      	adds	r2, #1
    46f2:	0008      	movs	r0, r1
    46f4:	3830      	subs	r0, #48	; 0x30
    46f6:	9211      	str	r2, [sp, #68]	; 0x44
    46f8:	2809      	cmp	r0, #9
    46fa:	d928      	bls.n	474e <io_printf+0xba>
    46fc:	2900      	cmp	r1, #0
    46fe:	d021      	beq.n	4744 <io_printf+0xb0>
    4700:	296b      	cmp	r1, #107	; 0x6b
    4702:	d100      	bne.n	4706 <io_printf+0x72>
    4704:	e0d2      	b.n	48ac <io_printf+0x218>
    4706:	d82e      	bhi.n	4766 <io_printf+0xd2>
    4708:	2963      	cmp	r1, #99	; 0x63
    470a:	d068      	beq.n	47de <io_printf+0x14a>
    470c:	d826      	bhi.n	475c <io_printf+0xc8>
    470e:	294b      	cmp	r1, #75	; 0x4b
    4710:	d001      	beq.n	4716 <io_printf+0x82>
    4712:	2952      	cmp	r1, #82	; 0x52
    4714:	d1d3      	bne.n	46be <io_printf+0x2a>
    4716:	9905      	ldr	r1, [sp, #20]
    4718:	1d0a      	adds	r2, r1, #4
    471a:	9205      	str	r2, [sp, #20]
    471c:	2200      	movs	r2, #0
    471e:	9201      	str	r2, [sp, #4]
    4720:	9a03      	ldr	r2, [sp, #12]
    4722:	9200      	str	r2, [sp, #0]
    4724:	6809      	ldr	r1, [r1, #0]
    4726:	003a      	movs	r2, r7
    4728:	0020      	movs	r0, r4
    472a:	f7ff ff55 	bl	45d8 <io_put_fixed>
    472e:	e7be      	b.n	46ae <io_printf+0x1a>
    4730:	230a      	movs	r3, #10
    4732:	437b      	muls	r3, r7
    4734:	3201      	adds	r2, #1
    4736:	1859      	adds	r1, r3, r1
    4738:	3930      	subs	r1, #48	; 0x30
    473a:	1e53      	subs	r3, r2, #1
    473c:	000f      	movs	r7, r1
    473e:	7819      	ldrb	r1, [r3, #0]
    4740:	2900      	cmp	r1, #0
    4742:	d1cb      	bne.n	46dc <io_printf+0x48>
    4744:	b00c      	add	sp, #48	; 0x30
    4746:	bcf0      	pop	{r4, r5, r6, r7}
    4748:	bc08      	pop	{r3}
    474a:	b003      	add	sp, #12
    474c:	4718      	bx	r3
    474e:	200a      	movs	r0, #10
    4750:	4358      	muls	r0, r3
    4752:	1843      	adds	r3, r0, r1
    4754:	3b30      	subs	r3, #48	; 0x30
    4756:	7811      	ldrb	r1, [r2, #0]
    4758:	3201      	adds	r2, #1
    475a:	e7ca      	b.n	46f2 <io_printf+0x5e>
    475c:	2964      	cmp	r1, #100	; 0x64
    475e:	d049      	beq.n	47f4 <io_printf+0x160>
    4760:	2966      	cmp	r1, #102	; 0x66
    4762:	d0d8      	beq.n	4716 <io_printf+0x82>
    4764:	e7ab      	b.n	46be <io_printf+0x2a>
    4766:	2975      	cmp	r1, #117	; 0x75
    4768:	d079      	beq.n	485e <io_printf+0x1ca>
    476a:	d81a      	bhi.n	47a2 <io_printf+0x10e>
    476c:	2972      	cmp	r1, #114	; 0x72
    476e:	d100      	bne.n	4772 <io_printf+0xde>
    4770:	e09c      	b.n	48ac <io_printf+0x218>
    4772:	2973      	cmp	r1, #115	; 0x73
    4774:	d1a3      	bne.n	46be <io_printf+0x2a>
    4776:	9b05      	ldr	r3, [sp, #20]
    4778:	681d      	ldr	r5, [r3, #0]
    477a:	1d1a      	adds	r2, r3, #4
    477c:	002b      	movs	r3, r5
    477e:	9205      	str	r2, [sp, #20]
    4780:	1b5e      	subs	r6, r3, r5
    4782:	3301      	adds	r3, #1
    4784:	1e5a      	subs	r2, r3, #1
    4786:	7812      	ldrb	r2, [r2, #0]
    4788:	2a00      	cmp	r2, #0
    478a:	d1f9      	bne.n	4780 <io_printf+0xec>
    478c:	42b7      	cmp	r7, r6
    478e:	dc2b      	bgt.n	47e8 <io_printf+0x154>
    4790:	7829      	ldrb	r1, [r5, #0]
    4792:	2900      	cmp	r1, #0
    4794:	d100      	bne.n	4798 <io_printf+0x104>
    4796:	e78a      	b.n	46ae <io_printf+0x1a>
    4798:	0020      	movs	r0, r4
    479a:	3501      	adds	r5, #1
    479c:	f7ff fea6 	bl	44ec <io_put_char>
    47a0:	e7f6      	b.n	4790 <io_printf+0xfc>
    47a2:	2978      	cmp	r1, #120	; 0x78
    47a4:	d100      	bne.n	47a8 <io_printf+0x114>
    47a6:	e08f      	b.n	48c8 <io_printf+0x234>
    47a8:	297a      	cmp	r1, #122	; 0x7a
    47aa:	d000      	beq.n	47ae <io_printf+0x11a>
    47ac:	e787      	b.n	46be <io_printf+0x2a>
    47ae:	9b05      	ldr	r3, [sp, #20]
    47b0:	1e7e      	subs	r6, r7, #1
    47b2:	1d1a      	adds	r2, r3, #4
    47b4:	681b      	ldr	r3, [r3, #0]
    47b6:	9303      	str	r3, [sp, #12]
    47b8:	4b58      	ldr	r3, [pc, #352]	; (491c <io_printf+0x288>)
    47ba:	9205      	str	r2, [sp, #20]
    47bc:	18fd      	adds	r5, r7, r3
    47be:	00ad      	lsls	r5, r5, #2
    47c0:	270f      	movs	r7, #15
    47c2:	2e00      	cmp	r6, #0
    47c4:	da00      	bge.n	47c8 <io_printf+0x134>
    47c6:	e772      	b.n	46ae <io_printf+0x1a>
    47c8:	9b03      	ldr	r3, [sp, #12]
    47ca:	4a55      	ldr	r2, [pc, #340]	; (4920 <io_printf+0x28c>)
    47cc:	40eb      	lsrs	r3, r5
    47ce:	403b      	ands	r3, r7
    47d0:	5cd1      	ldrb	r1, [r2, r3]
    47d2:	0020      	movs	r0, r4
    47d4:	f7ff fe8a 	bl	44ec <io_put_char>
    47d8:	3e01      	subs	r6, #1
    47da:	3d04      	subs	r5, #4
    47dc:	e7f1      	b.n	47c2 <io_printf+0x12e>
    47de:	9b05      	ldr	r3, [sp, #20]
    47e0:	1d1a      	adds	r2, r3, #4
    47e2:	9205      	str	r2, [sp, #20]
    47e4:	6819      	ldr	r1, [r3, #0]
    47e6:	e76a      	b.n	46be <io_printf+0x2a>
    47e8:	2120      	movs	r1, #32
    47ea:	0020      	movs	r0, r4
    47ec:	f7ff fe7e 	bl	44ec <io_put_char>
    47f0:	3f01      	subs	r7, #1
    47f2:	e7cb      	b.n	478c <io_printf+0xf8>
    47f4:	9b05      	ldr	r3, [sp, #20]
    47f6:	6819      	ldr	r1, [r3, #0]
    47f8:	1d1a      	adds	r2, r3, #4
    47fa:	2300      	movs	r3, #0
    47fc:	9205      	str	r2, [sp, #20]
    47fe:	9303      	str	r3, [sp, #12]
    4800:	4299      	cmp	r1, r3
    4802:	da02      	bge.n	480a <io_printf+0x176>
    4804:	332d      	adds	r3, #45	; 0x2d
    4806:	4249      	negs	r1, r1
    4808:	9303      	str	r3, [sp, #12]
    480a:	2500      	movs	r5, #0
    480c:	a806      	add	r0, sp, #24
    480e:	f7fb ed60 	blx	2d0 <sark_div10>
    4812:	9b07      	ldr	r3, [sp, #28]
    4814:	3501      	adds	r5, #1
    4816:	9906      	ldr	r1, [sp, #24]
    4818:	ae08      	add	r6, sp, #32
    481a:	1e6a      	subs	r2, r5, #1
    481c:	3330      	adds	r3, #48	; 0x30
    481e:	54b3      	strb	r3, [r6, r2]
    4820:	2900      	cmp	r1, #0
    4822:	d1f3      	bne.n	480c <io_printf+0x178>
    4824:	3d01      	subs	r5, #1
    4826:	5d73      	ldrb	r3, [r6, r5]
    4828:	2b30      	cmp	r3, #48	; 0x30
    482a:	d101      	bne.n	4830 <io_printf+0x19c>
    482c:	2d00      	cmp	r5, #0
    482e:	d1f9      	bne.n	4824 <io_printf+0x190>
    4830:	9b03      	ldr	r3, [sp, #12]
    4832:	2b00      	cmp	r3, #0
    4834:	d003      	beq.n	483e <io_printf+0x1aa>
    4836:	466b      	mov	r3, sp
    4838:	3501      	adds	r5, #1
    483a:	7b1b      	ldrb	r3, [r3, #12]
    483c:	5573      	strb	r3, [r6, r5]
    483e:	1c6b      	adds	r3, r5, #1
    4840:	429f      	cmp	r7, r3
    4842:	d806      	bhi.n	4852 <io_printf+0x1be>
    4844:	5d71      	ldrb	r1, [r6, r5]
    4846:	0020      	movs	r0, r4
    4848:	f7ff fe50 	bl	44ec <io_put_char>
    484c:	3d01      	subs	r5, #1
    484e:	d2f9      	bcs.n	4844 <io_printf+0x1b0>
    4850:	e72d      	b.n	46ae <io_printf+0x1a>
    4852:	2120      	movs	r1, #32
    4854:	0020      	movs	r0, r4
    4856:	f7ff fe49 	bl	44ec <io_put_char>
    485a:	3f01      	subs	r7, #1
    485c:	e7ef      	b.n	483e <io_printf+0x1aa>
    485e:	9b05      	ldr	r3, [sp, #20]
    4860:	2500      	movs	r5, #0
    4862:	6819      	ldr	r1, [r3, #0]
    4864:	1d1a      	adds	r2, r3, #4
    4866:	9205      	str	r2, [sp, #20]
    4868:	a806      	add	r0, sp, #24
    486a:	f7fb ed32 	blx	2d0 <sark_div10>
    486e:	9b07      	ldr	r3, [sp, #28]
    4870:	3501      	adds	r5, #1
    4872:	9906      	ldr	r1, [sp, #24]
    4874:	ae08      	add	r6, sp, #32
    4876:	1e6a      	subs	r2, r5, #1
    4878:	3330      	adds	r3, #48	; 0x30
    487a:	54b3      	strb	r3, [r6, r2]
    487c:	2900      	cmp	r1, #0
    487e:	d1f3      	bne.n	4868 <io_printf+0x1d4>
    4880:	3d01      	subs	r5, #1
    4882:	5d73      	ldrb	r3, [r6, r5]
    4884:	2b30      	cmp	r3, #48	; 0x30
    4886:	d101      	bne.n	488c <io_printf+0x1f8>
    4888:	2d00      	cmp	r5, #0
    488a:	d1f9      	bne.n	4880 <io_printf+0x1ec>
    488c:	1c6b      	adds	r3, r5, #1
    488e:	42bb      	cmp	r3, r7
    4890:	d306      	bcc.n	48a0 <io_printf+0x20c>
    4892:	5d71      	ldrb	r1, [r6, r5]
    4894:	0020      	movs	r0, r4
    4896:	f7ff fe29 	bl	44ec <io_put_char>
    489a:	3d01      	subs	r5, #1
    489c:	d2f9      	bcs.n	4892 <io_printf+0x1fe>
    489e:	e706      	b.n	46ae <io_printf+0x1a>
    48a0:	9903      	ldr	r1, [sp, #12]
    48a2:	0020      	movs	r0, r4
    48a4:	f7ff fe22 	bl	44ec <io_put_char>
    48a8:	3f01      	subs	r7, #1
    48aa:	e7ef      	b.n	488c <io_printf+0x1f8>
    48ac:	9a05      	ldr	r2, [sp, #20]
    48ae:	1d11      	adds	r1, r2, #4
    48b0:	6812      	ldr	r2, [r2, #0]
    48b2:	9105      	str	r1, [sp, #20]
    48b4:	17d0      	asrs	r0, r2, #31
    48b6:	1811      	adds	r1, r2, r0
    48b8:	0fd2      	lsrs	r2, r2, #31
    48ba:	4041      	eors	r1, r0
    48bc:	9201      	str	r2, [sp, #4]
    48be:	9a03      	ldr	r2, [sp, #12]
    48c0:	9200      	str	r2, [sp, #0]
    48c2:	0049      	lsls	r1, r1, #1
    48c4:	003a      	movs	r2, r7
    48c6:	e72f      	b.n	4728 <io_printf+0x94>
    48c8:	9b05      	ldr	r3, [sp, #20]
    48ca:	4815      	ldr	r0, [pc, #84]	; (4920 <io_printf+0x28c>)
    48cc:	1d1a      	adds	r2, r3, #4
    48ce:	9205      	str	r2, [sp, #20]
    48d0:	681b      	ldr	r3, [r3, #0]
    48d2:	220f      	movs	r2, #15
    48d4:	2500      	movs	r5, #0
    48d6:	ae08      	add	r6, sp, #32
    48d8:	4694      	mov	ip, r2
    48da:	4661      	mov	r1, ip
    48dc:	4019      	ands	r1, r3
    48de:	3501      	adds	r5, #1
    48e0:	1e6a      	subs	r2, r5, #1
    48e2:	5c41      	ldrb	r1, [r0, r1]
    48e4:	54b1      	strb	r1, [r6, r2]
    48e6:	091b      	lsrs	r3, r3, #4
    48e8:	d1f7      	bne.n	48da <io_printf+0x246>
    48ea:	3d01      	subs	r5, #1
    48ec:	5d73      	ldrb	r3, [r6, r5]
    48ee:	2b30      	cmp	r3, #48	; 0x30
    48f0:	d101      	bne.n	48f6 <io_printf+0x262>
    48f2:	2d00      	cmp	r5, #0
    48f4:	d1f9      	bne.n	48ea <io_printf+0x256>
    48f6:	1c6b      	adds	r3, r5, #1
    48f8:	42bb      	cmp	r3, r7
    48fa:	d306      	bcc.n	490a <io_printf+0x276>
    48fc:	5d71      	ldrb	r1, [r6, r5]
    48fe:	0020      	movs	r0, r4
    4900:	f7ff fdf4 	bl	44ec <io_put_char>
    4904:	3d01      	subs	r5, #1
    4906:	d2f9      	bcs.n	48fc <io_printf+0x268>
    4908:	e6d1      	b.n	46ae <io_printf+0x1a>
    490a:	9903      	ldr	r1, [sp, #12]
    490c:	0020      	movs	r0, r4
    490e:	f7ff fded 	bl	44ec <io_put_char>
    4912:	3f01      	subs	r7, #1
    4914:	e7ef      	b.n	48f6 <io_printf+0x262>
    4916:	46c0      	nop			; (mov r8, r8)
    4918:	004001f4 	.word	0x004001f4
    491c:	3fffffff 	.word	0x3fffffff
    4920:	00006211 	.word	0x00006211

00004924 <spin1_send_sdp_msg>:
    4924:	b510      	push	{r4, lr}
    4926:	f7ff fa5f 	bl	3de8 <sark_msg_send>
    492a:	bd10      	pop	{r4, pc}

0000492c <configure_dma_controller>:
    492c:	4b06      	ldr	r3, [pc, #24]	; (4948 <configure_dma_controller+0x1c>)
    492e:	223f      	movs	r2, #63	; 0x3f
    4930:	601a      	str	r2, [r3, #0]
    4932:	3a32      	subs	r2, #50	; 0x32
    4934:	601a      	str	r2, [r3, #0]
    4936:	4b05      	ldr	r3, [pc, #20]	; (494c <configure_dma_controller+0x20>)
    4938:	22c0      	movs	r2, #192	; 0xc0
    493a:	0112      	lsls	r2, r2, #4
    493c:	601a      	str	r2, [r3, #0]
    493e:	4b04      	ldr	r3, [pc, #16]	; (4950 <configure_dma_controller+0x24>)
    4940:	2203      	movs	r2, #3
    4942:	601a      	str	r2, [r3, #0]
    4944:	4770      	bx	lr
    4946:	46c0      	nop			; (mov r8, r8)
    4948:	40000010 	.word	0x40000010
    494c:	40000018 	.word	0x40000018
    4950:	40000028 	.word	0x40000028

00004954 <configure_timer1>:
    4954:	4b08      	ldr	r3, [pc, #32]	; (4978 <configure_timer1+0x24>)
    4956:	2200      	movs	r2, #0
    4958:	601a      	str	r2, [r3, #0]
    495a:	4b08      	ldr	r3, [pc, #32]	; (497c <configure_timer1+0x28>)
    495c:	3201      	adds	r2, #1
    495e:	601a      	str	r2, [r3, #0]
    4960:	4b07      	ldr	r3, [pc, #28]	; (4980 <configure_timer1+0x2c>)
    4962:	1841      	adds	r1, r0, r1
    4964:	8c9b      	ldrh	r3, [r3, #36]	; 0x24
    4966:	2284      	movs	r2, #132	; 0x84
    4968:	4359      	muls	r1, r3
    496a:	4358      	muls	r0, r3
    496c:	4b05      	ldr	r3, [pc, #20]	; (4984 <configure_timer1+0x30>)
    496e:	0592      	lsls	r2, r2, #22
    4970:	6011      	str	r1, [r2, #0]
    4972:	6018      	str	r0, [r3, #0]
    4974:	4770      	bx	lr
    4976:	46c0      	nop			; (mov r8, r8)
    4978:	21000008 	.word	0x21000008
    497c:	2100000c 	.word	0x2100000c
    4980:	e5007f00 	.word	0xe5007f00
    4984:	21000018 	.word	0x21000018

00004988 <configure_vic>:
    4988:	4b36      	ldr	r3, [pc, #216]	; (4a64 <configure_vic+0xdc>)
    498a:	4a37      	ldr	r2, [pc, #220]	; (4a68 <configure_vic+0xe0>)
    498c:	b530      	push	{r4, r5, lr}
    498e:	601a      	str	r2, [r3, #0]
    4990:	4a36      	ldr	r2, [pc, #216]	; (4a6c <configure_vic+0xe4>)
    4992:	2320      	movs	r3, #32
    4994:	69d9      	ldr	r1, [r3, #28]
    4996:	6011      	str	r1, [r2, #0]
    4998:	4935      	ldr	r1, [pc, #212]	; (4a70 <configure_vic+0xe8>)
    499a:	4a36      	ldr	r2, [pc, #216]	; (4a74 <configure_vic+0xec>)
    499c:	0004      	movs	r4, r0
    499e:	6808      	ldr	r0, [r1, #0]
    49a0:	6010      	str	r0, [r2, #0]
    49a2:	4a35      	ldr	r2, [pc, #212]	; (4a78 <configure_vic+0xf0>)
    49a4:	4835      	ldr	r0, [pc, #212]	; (4a7c <configure_vic+0xf4>)
    49a6:	6815      	ldr	r5, [r2, #0]
    49a8:	6005      	str	r5, [r0, #0]
    49aa:	4835      	ldr	r0, [pc, #212]	; (4a80 <configure_vic+0xf8>)
    49ac:	6800      	ldr	r0, [r0, #0]
    49ae:	2807      	cmp	r0, #7
    49b0:	d854      	bhi.n	4a5c <configure_vic+0xd4>
    49b2:	f7fb fcd7 	bl	364 <__gnu_thumb1_case_uqi>
    49b6:	4604      	.short	0x4604
    49b8:	044f534b 	.word	0x044f534b
    49bc:	4141      	.short	0x4141
    49be:	4831      	ldr	r0, [pc, #196]	; (4a84 <configure_vic+0xfc>)
    49c0:	61d8      	str	r0, [r3, #28]
    49c2:	2080      	movs	r0, #128	; 0x80
    49c4:	0440      	lsls	r0, r0, #17
    49c6:	2359      	movs	r3, #89	; 0x59
    49c8:	781b      	ldrb	r3, [r3, #0]
    49ca:	4d2f      	ldr	r5, [pc, #188]	; (4a88 <configure_vic+0x100>)
    49cc:	009b      	lsls	r3, r3, #2
    49ce:	195b      	adds	r3, r3, r5
    49d0:	2500      	movs	r5, #0
    49d2:	601d      	str	r5, [r3, #0]
    49d4:	4b2d      	ldr	r3, [pc, #180]	; (4a8c <configure_vic+0x104>)
    49d6:	4d2e      	ldr	r5, [pc, #184]	; (4a90 <configure_vic+0x108>)
    49d8:	601d      	str	r5, [r3, #0]
    49da:	4b2b      	ldr	r3, [pc, #172]	; (4a88 <configure_vic+0x100>)
    49dc:	2532      	movs	r5, #50	; 0x32
    49de:	601d      	str	r5, [r3, #0]
    49e0:	4b2c      	ldr	r3, [pc, #176]	; (4a94 <configure_vic+0x10c>)
    49e2:	4d2d      	ldr	r5, [pc, #180]	; (4a98 <configure_vic+0x110>)
    49e4:	601d      	str	r5, [r3, #0]
    49e6:	4b2d      	ldr	r3, [pc, #180]	; (4a9c <configure_vic+0x114>)
    49e8:	2538      	movs	r5, #56	; 0x38
    49ea:	601d      	str	r5, [r3, #0]
    49ec:	4b2c      	ldr	r3, [pc, #176]	; (4aa0 <configure_vic+0x118>)
    49ee:	4d2d      	ldr	r5, [pc, #180]	; (4aa4 <configure_vic+0x11c>)
    49f0:	601d      	str	r5, [r3, #0]
    49f2:	4b2d      	ldr	r3, [pc, #180]	; (4aa8 <configure_vic+0x120>)
    49f4:	253b      	movs	r5, #59	; 0x3b
    49f6:	601d      	str	r5, [r3, #0]
    49f8:	4b2c      	ldr	r3, [pc, #176]	; (4aac <configure_vic+0x124>)
    49fa:	4d2d      	ldr	r5, [pc, #180]	; (4ab0 <configure_vic+0x128>)
    49fc:	601d      	str	r5, [r3, #0]
    49fe:	4b2d      	ldr	r3, [pc, #180]	; (4ab4 <configure_vic+0x12c>)
    4a00:	252c      	movs	r5, #44	; 0x2c
    4a02:	601d      	str	r5, [r3, #0]
    4a04:	4b2c      	ldr	r3, [pc, #176]	; (4ab8 <configure_vic+0x130>)
    4a06:	4d2d      	ldr	r5, [pc, #180]	; (4abc <configure_vic+0x134>)
    4a08:	601d      	str	r5, [r3, #0]
    4a0a:	4b2d      	ldr	r3, [pc, #180]	; (4ac0 <configure_vic+0x138>)
    4a0c:	2524      	movs	r5, #36	; 0x24
    4a0e:	601d      	str	r5, [r3, #0]
    4a10:	4b2c      	ldr	r3, [pc, #176]	; (4ac4 <configure_vic+0x13c>)
    4a12:	4d2d      	ldr	r5, [pc, #180]	; (4ac8 <configure_vic+0x140>)
    4a14:	601d      	str	r5, [r3, #0]
    4a16:	4b2d      	ldr	r3, [pc, #180]	; (4acc <configure_vic+0x144>)
    4a18:	252b      	movs	r5, #43	; 0x2b
    4a1a:	601d      	str	r5, [r3, #0]
    4a1c:	4b2c      	ldr	r3, [pc, #176]	; (4ad0 <configure_vic+0x148>)
    4a1e:	4d2d      	ldr	r5, [pc, #180]	; (4ad4 <configure_vic+0x14c>)
    4a20:	601d      	str	r5, [r3, #0]
    4a22:	4b2d      	ldr	r3, [pc, #180]	; (4ad8 <configure_vic+0x150>)
    4a24:	2521      	movs	r5, #33	; 0x21
    4a26:	601d      	str	r5, [r3, #0]
    4a28:	6008      	str	r0, [r1, #0]
    4a2a:	2c00      	cmp	r4, #0
    4a2c:	d118      	bne.n	4a60 <configure_vic+0xd8>
    4a2e:	4b2b      	ldr	r3, [pc, #172]	; (4adc <configure_vic+0x154>)
    4a30:	492b      	ldr	r1, [pc, #172]	; (4ae0 <configure_vic+0x158>)
    4a32:	400b      	ands	r3, r1
    4a34:	6013      	str	r3, [r2, #0]
    4a36:	bd30      	pop	{r4, r5, pc}
    4a38:	482a      	ldr	r0, [pc, #168]	; (4ae4 <configure_vic+0x15c>)
    4a3a:	61d8      	str	r0, [r3, #28]
    4a3c:	2080      	movs	r0, #128	; 0x80
    4a3e:	0500      	lsls	r0, r0, #20
    4a40:	e7c1      	b.n	49c6 <configure_vic+0x3e>
    4a42:	4829      	ldr	r0, [pc, #164]	; (4ae8 <configure_vic+0x160>)
    4a44:	61d8      	str	r0, [r3, #28]
    4a46:	2080      	movs	r0, #128	; 0x80
    4a48:	0140      	lsls	r0, r0, #5
    4a4a:	e7bc      	b.n	49c6 <configure_vic+0x3e>
    4a4c:	4827      	ldr	r0, [pc, #156]	; (4aec <configure_vic+0x164>)
    4a4e:	61d8      	str	r0, [r3, #28]
    4a50:	2010      	movs	r0, #16
    4a52:	e7b8      	b.n	49c6 <configure_vic+0x3e>
    4a54:	4826      	ldr	r0, [pc, #152]	; (4af0 <configure_vic+0x168>)
    4a56:	61d8      	str	r0, [r3, #28]
    4a58:	2002      	movs	r0, #2
    4a5a:	e7b4      	b.n	49c6 <configure_vic+0x3e>
    4a5c:	2000      	movs	r0, #0
    4a5e:	e7b2      	b.n	49c6 <configure_vic+0x3e>
    4a60:	4b01      	ldr	r3, [pc, #4]	; (4a68 <configure_vic+0xe0>)
    4a62:	e7e5      	b.n	4a30 <configure_vic+0xa8>
    4a64:	1f000014 	.word	0x1f000014
    4a68:	09003012 	.word	0x09003012
    4a6c:	00400604 	.word	0x00400604
    4a70:	1f00000c 	.word	0x1f00000c
    4a74:	004007a4 	.word	0x004007a4
    4a78:	1f000010 	.word	0x1f000010
    4a7c:	00400650 	.word	0x00400650
    4a80:	00400000 	.word	0x00400000
    4a84:	00005108 	.word	0x00005108
    4a88:	2f000200 	.word	0x2f000200
    4a8c:	2f000100 	.word	0x2f000100
    4a90:	00000300 	.word	0x00000300
    4a94:	2f00010c 	.word	0x2f00010c
    4a98:	00005094 	.word	0x00005094
    4a9c:	2f00020c 	.word	0x2f00020c
    4aa0:	2f000110 	.word	0x2f000110
    4aa4:	00005140 	.word	0x00005140
    4aa8:	2f000210 	.word	0x2f000210
    4aac:	2f000108 	.word	0x2f000108
    4ab0:	00005278 	.word	0x00005278
    4ab4:	2f000208 	.word	0x2f000208
    4ab8:	2f000104 	.word	0x2f000104
    4abc:	00005380 	.word	0x00005380
    4ac0:	2f000204 	.word	0x2f000204
    4ac4:	2f000114 	.word	0x2f000114
    4ac8:	000051ec 	.word	0x000051ec
    4acc:	2f000214 	.word	0x2f000214
    4ad0:	2f000118 	.word	0x2f000118
    4ad4:	00005448 	.word	0x00005448
    4ad8:	2f000218 	.word	0x2f000218
    4adc:	09003002 	.word	0x09003002
    4ae0:	ffffdfff 	.word	0xffffdfff
    4ae4:	000051b4 	.word	0x000051b4
    4ae8:	00005308 	.word	0x00005308
    4aec:	00005408 	.word	0x00005408
    4af0:	000054b0 	.word	0x000054b0

00004af4 <resume>:
    4af4:	4a0b      	ldr	r2, [pc, #44]	; (4b24 <resume+0x30>)
    4af6:	b510      	push	{r4, lr}
    4af8:	6813      	ldr	r3, [r2, #0]
    4afa:	2b01      	cmp	r3, #1
    4afc:	d105      	bne.n	4b0a <resume+0x16>
    4afe:	2100      	movs	r1, #0
    4b00:	6011      	str	r1, [r2, #0]
    4b02:	4a09      	ldr	r2, [pc, #36]	; (4b28 <resume+0x34>)
    4b04:	7e91      	ldrb	r1, [r2, #26]
    4b06:	404b      	eors	r3, r1
    4b08:	7693      	strb	r3, [r2, #26]
    4b0a:	4b08      	ldr	r3, [pc, #32]	; (4b2c <resume+0x38>)
    4b0c:	2200      	movs	r2, #0
    4b0e:	2007      	movs	r0, #7
    4b10:	601a      	str	r2, [r3, #0]
    4b12:	f7ff f847 	bl	3ba4 <sark_cpu_state>
    4b16:	4b06      	ldr	r3, [pc, #24]	; (4b30 <resume+0x3c>)
    4b18:	2210      	movs	r2, #16
    4b1a:	601a      	str	r2, [r3, #0]
    4b1c:	4b05      	ldr	r3, [pc, #20]	; (4b34 <resume+0x40>)
    4b1e:	32d2      	adds	r2, #210	; 0xd2
    4b20:	601a      	str	r2, [r3, #0]
    4b22:	bd10      	pop	{r4, pc}
    4b24:	004001fc 	.word	0x004001fc
    4b28:	0040056c 	.word	0x0040056c
    4b2c:	004001f8 	.word	0x004001f8
    4b30:	1f000010 	.word	0x1f000010
    4b34:	21000008 	.word	0x21000008

00004b38 <resume_wait>:
    4b38:	4b06      	ldr	r3, [pc, #24]	; (4b54 <resume_wait+0x1c>)
    4b3a:	2001      	movs	r0, #1
    4b3c:	681b      	ldr	r3, [r3, #0]
    4b3e:	4098      	lsls	r0, r3
    4b40:	4b05      	ldr	r3, [pc, #20]	; (4b58 <resume_wait+0x20>)
    4b42:	7e9a      	ldrb	r2, [r3, #26]
    4b44:	4b05      	ldr	r3, [pc, #20]	; (4b5c <resume_wait+0x24>)
    4b46:	681b      	ldr	r3, [r3, #0]
    4b48:	2a00      	cmp	r2, #0
    4b4a:	d001      	beq.n	4b50 <resume_wait+0x18>
    4b4c:	4398      	bics	r0, r3
    4b4e:	4770      	bx	lr
    4b50:	4018      	ands	r0, r3
    4b52:	e7fc      	b.n	4b4e <resume_wait+0x16>
    4b54:	00400530 	.word	0x00400530
    4b58:	0040056c 	.word	0x0040056c
    4b5c:	e2000058 	.word	0xe2000058

00004b60 <dispatch>:
    4b60:	b5f7      	push	{r0, r1, r2, r4, r5, r6, r7, lr}
    4b62:	4a33      	ldr	r2, [pc, #204]	; (4c30 <dispatch+0xd0>)
    4b64:	2300      	movs	r3, #0
    4b66:	6013      	str	r3, [r2, #0]
    4b68:	4b32      	ldr	r3, [pc, #200]	; (4c34 <dispatch+0xd4>)
    4b6a:	681b      	ldr	r3, [r3, #0]
    4b6c:	2b00      	cmp	r3, #0
    4b6e:	d100      	bne.n	4b72 <dispatch+0x12>
    4b70:	bdf7      	pop	{r0, r1, r2, r4, r5, r6, r7, pc}
    4b72:	f7fb eb2a 	blx	1c8 <cpu_int_disable>
    4b76:	2300      	movs	r3, #0
    4b78:	0004      	movs	r4, r0
    4b7a:	4a2e      	ldr	r2, [pc, #184]	; (4c34 <dispatch+0xd4>)
    4b7c:	6811      	ldr	r1, [r2, #0]
    4b7e:	2900      	cmp	r1, #0
    4b80:	d112      	bne.n	4ba8 <dispatch+0x48>
    4b82:	6813      	ldr	r3, [r2, #0]
    4b84:	2b00      	cmp	r3, #0
    4b86:	d0ef      	beq.n	4b68 <dispatch+0x8>
    4b88:	f7fb eb2a 	blx	1e0 <cpu_wfi>
    4b8c:	4b28      	ldr	r3, [pc, #160]	; (4c30 <dispatch+0xd0>)
    4b8e:	681b      	ldr	r3, [r3, #0]
    4b90:	2b01      	cmp	r3, #1
    4b92:	d105      	bne.n	4ba0 <dispatch+0x40>
    4b94:	f7ff ffd0 	bl	4b38 <resume_wait>
    4b98:	2800      	cmp	r0, #0
    4b9a:	d101      	bne.n	4ba0 <dispatch+0x40>
    4b9c:	f7ff ffaa 	bl	4af4 <resume>
    4ba0:	0020      	movs	r0, r4
    4ba2:	f7fb eb1a 	blx	1d8 <cpu_int_restore>
    4ba6:	e7df      	b.n	4b68 <dispatch+0x8>
    4ba8:	2b03      	cmp	r3, #3
    4baa:	d8ea      	bhi.n	4b82 <dispatch+0x22>
    4bac:	22c8      	movs	r2, #200	; 0xc8
    4bae:	435a      	muls	r2, r3
    4bb0:	4921      	ldr	r1, [pc, #132]	; (4c38 <dispatch+0xd8>)
    4bb2:	1c58      	adds	r0, r3, #1
    4bb4:	0013      	movs	r3, r2
    4bb6:	18ce      	adds	r6, r1, r3
    4bb8:	5852      	ldr	r2, [r2, r1]
    4bba:	6876      	ldr	r6, [r6, #4]
    4bbc:	42b2      	cmp	r2, r6
    4bbe:	d035      	beq.n	4c2c <dispatch+0xcc>
    4bc0:	270c      	movs	r7, #12
    4bc2:	4357      	muls	r7, r2
    4bc4:	18ff      	adds	r7, r7, r3
    4bc6:	19cf      	adds	r7, r1, r7
    4bc8:	3201      	adds	r2, #1
    4bca:	68be      	ldr	r6, [r7, #8]
    4bcc:	0015      	movs	r5, r2
    4bce:	220f      	movs	r2, #15
    4bd0:	9601      	str	r6, [sp, #4]
    4bd2:	4015      	ands	r5, r2
    4bd4:	505d      	str	r5, [r3, r1]
    4bd6:	9b01      	ldr	r3, [sp, #4]
    4bd8:	68fe      	ldr	r6, [r7, #12]
    4bda:	693f      	ldr	r7, [r7, #16]
    4bdc:	2b00      	cmp	r3, #0
    4bde:	d025      	beq.n	4c2c <dispatch+0xcc>
    4be0:	0020      	movs	r0, r4
    4be2:	f7fb eafa 	blx	1d8 <cpu_int_restore>
    4be6:	4c15      	ldr	r4, [pc, #84]	; (4c3c <dispatch+0xdc>)
    4be8:	9a01      	ldr	r2, [sp, #4]
    4bea:	6923      	ldr	r3, [r4, #16]
    4bec:	4293      	cmp	r3, r2
    4bee:	d102      	bne.n	4bf6 <dispatch+0x96>
    4bf0:	4a13      	ldr	r2, [pc, #76]	; (4c40 <dispatch+0xe0>)
    4bf2:	2101      	movs	r1, #1
    4bf4:	6391      	str	r1, [r2, #56]	; 0x38
    4bf6:	9a01      	ldr	r2, [sp, #4]
    4bf8:	4293      	cmp	r3, r2
    4bfa:	d103      	bne.n	4c04 <dispatch+0xa4>
    4bfc:	4b11      	ldr	r3, [pc, #68]	; (4c44 <dispatch+0xe4>)
    4bfe:	681b      	ldr	r3, [r3, #0]
    4c00:	2b00      	cmp	r3, #0
    4c02:	d103      	bne.n	4c0c <dispatch+0xac>
    4c04:	9b01      	ldr	r3, [sp, #4]
    4c06:	0039      	movs	r1, r7
    4c08:	0030      	movs	r0, r6
    4c0a:	4798      	blx	r3
    4c0c:	9b01      	ldr	r3, [sp, #4]
    4c0e:	6922      	ldr	r2, [r4, #16]
    4c10:	429a      	cmp	r2, r3
    4c12:	d107      	bne.n	4c24 <dispatch+0xc4>
    4c14:	4a0a      	ldr	r2, [pc, #40]	; (4c40 <dispatch+0xe0>)
    4c16:	6bd3      	ldr	r3, [r2, #60]	; 0x3c
    4c18:	2b00      	cmp	r3, #0
    4c1a:	d001      	beq.n	4c20 <dispatch+0xc0>
    4c1c:	3b01      	subs	r3, #1
    4c1e:	63d3      	str	r3, [r2, #60]	; 0x3c
    4c20:	2300      	movs	r3, #0
    4c22:	6393      	str	r3, [r2, #56]	; 0x38
    4c24:	f7fb ead0 	blx	1c8 <cpu_int_disable>
    4c28:	0004      	movs	r4, r0
    4c2a:	2000      	movs	r0, #0
    4c2c:	0003      	movs	r3, r0
    4c2e:	e7a4      	b.n	4b7a <dispatch+0x1a>
    4c30:	004001fc 	.word	0x004001fc
    4c34:	00400200 	.word	0x00400200
    4c38:	00400204 	.word	0x00400204
    4c3c:	004007b0 	.word	0x004007b0
    4c40:	00400608 	.word	0x00400608
    4c44:	004001f8 	.word	0x004001f8

00004c48 <spin1_callback_on>:
    4c48:	4b1d      	ldr	r3, [pc, #116]	; (4cc0 <spin1_callback_on+0x78>)
    4c4a:	b570      	push	{r4, r5, r6, lr}
    4c4c:	0015      	movs	r5, r2
    4c4e:	00c2      	lsls	r2, r0, #3
    4c50:	50d1      	str	r1, [r2, r3]
    4c52:	189b      	adds	r3, r3, r2
    4c54:	0004      	movs	r4, r0
    4c56:	605d      	str	r5, [r3, #4]
    4c58:	2d00      	cmp	r5, #0
    4c5a:	da08      	bge.n	4c6e <spin1_callback_on+0x26>
    4c5c:	4a19      	ldr	r2, [pc, #100]	; (4cc4 <spin1_callback_on+0x7c>)
    4c5e:	6813      	ldr	r3, [r2, #0]
    4c60:	1c59      	adds	r1, r3, #1
    4c62:	d003      	beq.n	4c6c <spin1_callback_on+0x24>
    4c64:	2800      	cmp	r0, #0
    4c66:	d10c      	bne.n	4c82 <spin1_callback_on+0x3a>
    4c68:	2b05      	cmp	r3, #5
    4c6a:	d10e      	bne.n	4c8a <spin1_callback_on+0x42>
    4c6c:	6014      	str	r4, [r2, #0]
    4c6e:	2c00      	cmp	r4, #0
    4c70:	d001      	beq.n	4c76 <spin1_callback_on+0x2e>
    4c72:	2c05      	cmp	r4, #5
    4c74:	d11f      	bne.n	4cb6 <spin1_callback_on+0x6e>
    4c76:	4a14      	ldr	r2, [pc, #80]	; (4cc8 <spin1_callback_on+0x80>)
    4c78:	6813      	ldr	r3, [r2, #0]
    4c7a:	1c99      	adds	r1, r3, #2
    4c7c:	d113      	bne.n	4ca6 <spin1_callback_on+0x5e>
    4c7e:	6015      	str	r5, [r2, #0]
    4c80:	e018      	b.n	4cb4 <spin1_callback_on+0x6c>
    4c82:	2805      	cmp	r0, #5
    4c84:	d105      	bne.n	4c92 <spin1_callback_on+0x4a>
    4c86:	2b00      	cmp	r3, #0
    4c88:	d0f0      	beq.n	4c6c <spin1_callback_on+0x24>
    4c8a:	2013      	movs	r0, #19
    4c8c:	f7fb ea4e 	blx	12c <rt_error>
    4c90:	e7ed      	b.n	4c6e <spin1_callback_on+0x26>
    4c92:	2806      	cmp	r0, #6
    4c94:	d102      	bne.n	4c9c <spin1_callback_on+0x54>
    4c96:	2b07      	cmp	r3, #7
    4c98:	d1f7      	bne.n	4c8a <spin1_callback_on+0x42>
    4c9a:	e7e7      	b.n	4c6c <spin1_callback_on+0x24>
    4c9c:	2807      	cmp	r0, #7
    4c9e:	d1f4      	bne.n	4c8a <spin1_callback_on+0x42>
    4ca0:	2b06      	cmp	r3, #6
    4ca2:	d1f2      	bne.n	4c8a <spin1_callback_on+0x42>
    4ca4:	e7e2      	b.n	4c6c <spin1_callback_on+0x24>
    4ca6:	3301      	adds	r3, #1
    4ca8:	d104      	bne.n	4cb4 <spin1_callback_on+0x6c>
    4caa:	1c6b      	adds	r3, r5, #1
    4cac:	d002      	beq.n	4cb4 <spin1_callback_on+0x6c>
    4cae:	2013      	movs	r0, #19
    4cb0:	f7fb ea3c 	blx	12c <rt_error>
    4cb4:	bd70      	pop	{r4, r5, r6, pc}
    4cb6:	3c06      	subs	r4, #6
    4cb8:	2c01      	cmp	r4, #1
    4cba:	d8fb      	bhi.n	4cb4 <spin1_callback_on+0x6c>
    4cbc:	4a03      	ldr	r2, [pc, #12]	; (4ccc <spin1_callback_on+0x84>)
    4cbe:	e7db      	b.n	4c78 <spin1_callback_on+0x30>
    4cc0:	004007b0 	.word	0x004007b0
    4cc4:	00400000 	.word	0x00400000
    4cc8:	00400008 	.word	0x00400008
    4ccc:	00400004 	.word	0x00400004

00004cd0 <spin1_exit>:
    4cd0:	4b04      	ldr	r3, [pc, #16]	; (4ce4 <spin1_exit+0x14>)
    4cd2:	4a05      	ldr	r2, [pc, #20]	; (4ce8 <spin1_exit+0x18>)
    4cd4:	601a      	str	r2, [r3, #0]
    4cd6:	4b05      	ldr	r3, [pc, #20]	; (4cec <spin1_exit+0x1c>)
    4cd8:	2200      	movs	r2, #0
    4cda:	601a      	str	r2, [r3, #0]
    4cdc:	4b04      	ldr	r3, [pc, #16]	; (4cf0 <spin1_exit+0x20>)
    4cde:	6018      	str	r0, [r3, #0]
    4ce0:	4770      	bx	lr
    4ce2:	46c0      	nop			; (mov r8, r8)
    4ce4:	1f000014 	.word	0x1f000014
    4ce8:	09003012 	.word	0x09003012
    4cec:	00400200 	.word	0x00400200
    4cf0:	00400608 	.word	0x00400608

00004cf4 <clean_up>:
    4cf4:	b510      	push	{r4, lr}
    4cf6:	f7fb ea68 	blx	1c8 <cpu_int_disable>
    4cfa:	4b10      	ldr	r3, [pc, #64]	; (4d3c <clean_up+0x48>)
    4cfc:	681a      	ldr	r2, [r3, #0]
    4cfe:	2320      	movs	r3, #32
    4d00:	61da      	str	r2, [r3, #28]
    4d02:	4b0f      	ldr	r3, [pc, #60]	; (4d40 <clean_up+0x4c>)
    4d04:	681a      	ldr	r2, [r3, #0]
    4d06:	4b0f      	ldr	r3, [pc, #60]	; (4d44 <clean_up+0x50>)
    4d08:	601a      	str	r2, [r3, #0]
    4d0a:	4b0f      	ldr	r3, [pc, #60]	; (4d48 <clean_up+0x54>)
    4d0c:	681a      	ldr	r2, [r3, #0]
    4d0e:	4b0f      	ldr	r3, [pc, #60]	; (4d4c <clean_up+0x58>)
    4d10:	601a      	str	r2, [r3, #0]
    4d12:	2359      	movs	r3, #89	; 0x59
    4d14:	781b      	ldrb	r3, [r3, #0]
    4d16:	4a0e      	ldr	r2, [pc, #56]	; (4d50 <clean_up+0x5c>)
    4d18:	009b      	lsls	r3, r3, #2
    4d1a:	189b      	adds	r3, r3, r2
    4d1c:	2232      	movs	r2, #50	; 0x32
    4d1e:	601a      	str	r2, [r3, #0]
    4d20:	4b0c      	ldr	r3, [pc, #48]	; (4d54 <clean_up+0x60>)
    4d22:	3a31      	subs	r2, #49	; 0x31
    4d24:	601a      	str	r2, [r3, #0]
    4d26:	4b0c      	ldr	r3, [pc, #48]	; (4d58 <clean_up+0x64>)
    4d28:	2200      	movs	r2, #0
    4d2a:	601a      	str	r2, [r3, #0]
    4d2c:	4b0b      	ldr	r3, [pc, #44]	; (4d5c <clean_up+0x68>)
    4d2e:	323f      	adds	r2, #63	; 0x3f
    4d30:	601a      	str	r2, [r3, #0]
    4d32:	3a32      	subs	r2, #50	; 0x32
    4d34:	601a      	str	r2, [r3, #0]
    4d36:	f7fb ea50 	blx	1d8 <cpu_int_restore>
    4d3a:	bd10      	pop	{r4, pc}
    4d3c:	00400604 	.word	0x00400604
    4d40:	004007a4 	.word	0x004007a4
    4d44:	1f00000c 	.word	0x1f00000c
    4d48:	00400650 	.word	0x00400650
    4d4c:	1f000010 	.word	0x1f000010
    4d50:	2f000200 	.word	0x2f000200
    4d54:	2100000c 	.word	0x2100000c
    4d58:	40000018 	.word	0x40000018
    4d5c:	40000010 	.word	0x40000010

00004d60 <report_debug>:
    4d60:	4b12      	ldr	r3, [pc, #72]	; (4dac <report_debug+0x4c>)
    4d62:	b510      	push	{r4, lr}
    4d64:	781b      	ldrb	r3, [r3, #0]
    4d66:	2b00      	cmp	r3, #0
    4d68:	d00e      	beq.n	4d88 <report_debug+0x28>
    4d6a:	4b11      	ldr	r3, [pc, #68]	; (4db0 <report_debug+0x50>)
    4d6c:	4911      	ldr	r1, [pc, #68]	; (4db4 <report_debug+0x54>)
    4d6e:	681a      	ldr	r2, [r3, #0]
    4d70:	4b11      	ldr	r3, [pc, #68]	; (4db8 <report_debug+0x58>)
    4d72:	2002      	movs	r0, #2
    4d74:	681b      	ldr	r3, [r3, #0]
    4d76:	18d2      	adds	r2, r2, r3
    4d78:	f7ff fc8c 	bl	4694 <io_printf>
    4d7c:	4b0f      	ldr	r3, [pc, #60]	; (4dbc <report_debug+0x5c>)
    4d7e:	4910      	ldr	r1, [pc, #64]	; (4dc0 <report_debug+0x60>)
    4d80:	681a      	ldr	r2, [r3, #0]
    4d82:	2002      	movs	r0, #2
    4d84:	f7ff fc86 	bl	4694 <io_printf>
    4d88:	4c0e      	ldr	r4, [pc, #56]	; (4dc4 <report_debug+0x64>)
    4d8a:	490f      	ldr	r1, [pc, #60]	; (4dc8 <report_debug+0x68>)
    4d8c:	6922      	ldr	r2, [r4, #16]
    4d8e:	2002      	movs	r0, #2
    4d90:	f7ff fc80 	bl	4694 <io_printf>
    4d94:	6b62      	ldr	r2, [r4, #52]	; 0x34
    4d96:	490d      	ldr	r1, [pc, #52]	; (4dcc <report_debug+0x6c>)
    4d98:	2002      	movs	r0, #2
    4d9a:	f7ff fc7b 	bl	4694 <io_printf>
    4d9e:	4b0c      	ldr	r3, [pc, #48]	; (4dd0 <report_debug+0x70>)
    4da0:	490c      	ldr	r1, [pc, #48]	; (4dd4 <report_debug+0x74>)
    4da2:	681a      	ldr	r2, [r3, #0]
    4da4:	2002      	movs	r0, #2
    4da6:	f7ff fc75 	bl	4694 <io_printf>
    4daa:	bd10      	pop	{r4, pc}
    4dac:	00400658 	.word	0x00400658
    4db0:	e1000300 	.word	0xe1000300
    4db4:	00006222 	.word	0x00006222
    4db8:	e1000304 	.word	0xe1000304
    4dbc:	e1000320 	.word	0xe1000320
    4dc0:	00006248 	.word	0x00006248
    4dc4:	00400608 	.word	0x00400608
    4dc8:	0000626e 	.word	0x0000626e
    4dcc:	00006294 	.word	0x00006294
    4dd0:	40000040 	.word	0x40000040
    4dd4:	000062bd 	.word	0x000062bd

00004dd8 <report_warns>:
    4dd8:	b510      	push	{r4, lr}
    4dda:	4c0d      	ldr	r4, [pc, #52]	; (4e10 <report_warns+0x38>)
    4ddc:	6863      	ldr	r3, [r4, #4]
    4dde:	07db      	lsls	r3, r3, #31
    4de0:	d504      	bpl.n	4dec <report_warns+0x14>
    4de2:	6a22      	ldr	r2, [r4, #32]
    4de4:	490b      	ldr	r1, [pc, #44]	; (4e14 <report_warns+0x3c>)
    4de6:	2002      	movs	r0, #2
    4de8:	f7ff fc54 	bl	4694 <io_printf>
    4dec:	6863      	ldr	r3, [r4, #4]
    4dee:	2002      	movs	r0, #2
    4df0:	4203      	tst	r3, r0
    4df2:	d003      	beq.n	4dfc <report_warns+0x24>
    4df4:	69e2      	ldr	r2, [r4, #28]
    4df6:	4908      	ldr	r1, [pc, #32]	; (4e18 <report_warns+0x40>)
    4df8:	f7ff fc4c 	bl	4694 <io_printf>
    4dfc:	6863      	ldr	r3, [r4, #4]
    4dfe:	075b      	lsls	r3, r3, #29
    4e00:	d504      	bpl.n	4e0c <report_warns+0x34>
    4e02:	6a62      	ldr	r2, [r4, #36]	; 0x24
    4e04:	4905      	ldr	r1, [pc, #20]	; (4e1c <report_warns+0x44>)
    4e06:	2002      	movs	r0, #2
    4e08:	f7ff fc44 	bl	4694 <io_printf>
    4e0c:	bd10      	pop	{r4, pc}
    4e0e:	46c0      	nop			; (mov r8, r8)
    4e10:	00400608 	.word	0x00400608
    4e14:	000062dc 	.word	0x000062dc
    4e18:	00006308 	.word	0x00006308
    4e1c:	00006333 	.word	0x00006333

00004e20 <start>:
    4e20:	b5f7      	push	{r0, r1, r2, r4, r5, r6, r7, lr}
    4e22:	4e2e      	ldr	r6, [pc, #184]	; (4edc <start+0xbc>)
    4e24:	9001      	str	r0, [sp, #4]
    4e26:	6031      	str	r1, [r6, #0]
    4e28:	6833      	ldr	r3, [r6, #0]
    4e2a:	200a      	movs	r0, #10
    4e2c:	2b00      	cmp	r3, #0
    4e2e:	d100      	bne.n	4e32 <start+0x12>
    4e30:	2007      	movs	r0, #7
    4e32:	f7fe feb7 	bl	3ba4 <sark_cpu_state>
    4e36:	2380      	movs	r3, #128	; 0x80
    4e38:	2500      	movs	r5, #0
    4e3a:	059b      	lsls	r3, r3, #22
    4e3c:	601d      	str	r5, [r3, #0]
    4e3e:	f7ff fd75 	bl	492c <configure_dma_controller>
    4e42:	4b27      	ldr	r3, [pc, #156]	; (4ee0 <start+0xc0>)
    4e44:	4f27      	ldr	r7, [pc, #156]	; (4ee4 <start+0xc4>)
    4e46:	6819      	ldr	r1, [r3, #0]
    4e48:	6838      	ldr	r0, [r7, #0]
    4e4a:	f7ff fd83 	bl	4954 <configure_timer1>
    4e4e:	6830      	ldr	r0, [r6, #0]
    4e50:	4243      	negs	r3, r0
    4e52:	4158      	adcs	r0, r3
    4e54:	f7ff fd98 	bl	4988 <configure_vic>
    4e58:	4c23      	ldr	r4, [pc, #140]	; (4ee8 <start+0xc8>)
    4e5a:	2301      	movs	r3, #1
    4e5c:	6163      	str	r3, [r4, #20]
    4e5e:	9b01      	ldr	r3, [sp, #4]
    4e60:	6065      	str	r5, [r4, #4]
    4e62:	61e5      	str	r5, [r4, #28]
    4e64:	6225      	str	r5, [r4, #32]
    4e66:	6265      	str	r5, [r4, #36]	; 0x24
    4e68:	6025      	str	r5, [r4, #0]
    4e6a:	63a5      	str	r5, [r4, #56]	; 0x38
    4e6c:	63e5      	str	r5, [r4, #60]	; 0x3c
    4e6e:	6465      	str	r5, [r4, #68]	; 0x44
    4e70:	6425      	str	r5, [r4, #64]	; 0x40
    4e72:	2b01      	cmp	r3, #1
    4e74:	d101      	bne.n	4e7a <start+0x5a>
    4e76:	f7ff f953 	bl	4120 <event_wait>
    4e7a:	683b      	ldr	r3, [r7, #0]
    4e7c:	2b00      	cmp	r3, #0
    4e7e:	d005      	beq.n	4e8c <start+0x6c>
    4e80:	6833      	ldr	r3, [r6, #0]
    4e82:	2b00      	cmp	r3, #0
    4e84:	d102      	bne.n	4e8c <start+0x6c>
    4e86:	4b19      	ldr	r3, [pc, #100]	; (4eec <start+0xcc>)
    4e88:	22e2      	movs	r2, #226	; 0xe2
    4e8a:	601a      	str	r2, [r3, #0]
    4e8c:	4b18      	ldr	r3, [pc, #96]	; (4ef0 <start+0xd0>)
    4e8e:	2200      	movs	r2, #0
    4e90:	601a      	str	r2, [r3, #0]
    4e92:	4b18      	ldr	r3, [pc, #96]	; (4ef4 <start+0xd4>)
    4e94:	3201      	adds	r2, #1
    4e96:	601a      	str	r2, [r3, #0]
    4e98:	f7ff fe62 	bl	4b60 <dispatch>
    4e9c:	f7ff ff2a 	bl	4cf4 <clean_up>
    4ea0:	f7fb e98a 	blx	1b8 <cpu_int_enable>
    4ea4:	4b14      	ldr	r3, [pc, #80]	; (4ef8 <start+0xd8>)
    4ea6:	4a15      	ldr	r2, [pc, #84]	; (4efc <start+0xdc>)
    4ea8:	681b      	ldr	r3, [r3, #0]
    4eaa:	6812      	ldr	r2, [r2, #0]
    4eac:	189b      	adds	r3, r3, r2
    4eae:	60a3      	str	r3, [r4, #8]
    4eb0:	4b13      	ldr	r3, [pc, #76]	; (4f00 <start+0xe0>)
    4eb2:	4a14      	ldr	r2, [pc, #80]	; (4f04 <start+0xe4>)
    4eb4:	681b      	ldr	r3, [r3, #0]
    4eb6:	60e3      	str	r3, [r4, #12]
    4eb8:	4b13      	ldr	r3, [pc, #76]	; (4f08 <start+0xe8>)
    4eba:	681b      	ldr	r3, [r3, #0]
    4ebc:	61a3      	str	r3, [r4, #24]
    4ebe:	4b13      	ldr	r3, [pc, #76]	; (4f0c <start+0xec>)
    4ec0:	681b      	ldr	r3, [r3, #0]
    4ec2:	6812      	ldr	r2, [r2, #0]
    4ec4:	189b      	adds	r3, r3, r2
    4ec6:	62e3      	str	r3, [r4, #44]	; 0x2c
    4ec8:	4b11      	ldr	r3, [pc, #68]	; (4f10 <start+0xf0>)
    4eca:	681b      	ldr	r3, [r3, #0]
    4ecc:	6323      	str	r3, [r4, #48]	; 0x30
    4ece:	f7ff ff47 	bl	4d60 <report_debug>
    4ed2:	f7ff ff81 	bl	4dd8 <report_warns>
    4ed6:	6820      	ldr	r0, [r4, #0]
    4ed8:	bdfe      	pop	{r1, r2, r3, r4, r5, r6, r7, pc}
    4eda:	46c0      	nop			; (mov r8, r8)
    4edc:	004001f8 	.word	0x004001f8
    4ee0:	00400524 	.word	0x00400524
    4ee4:	00400528 	.word	0x00400528
    4ee8:	00400608 	.word	0x00400608
    4eec:	21000008 	.word	0x21000008
    4ef0:	004007a8 	.word	0x004007a8
    4ef4:	00400200 	.word	0x00400200
    4ef8:	e1000300 	.word	0xe1000300
    4efc:	e1000304 	.word	0xe1000304
    4f00:	e1000320 	.word	0xe1000320
    4f04:	e100031c 	.word	0xe100031c
    4f08:	40000040 	.word	0x40000040
    4f0c:	e1000318 	.word	0xe1000318
    4f10:	e100032c 	.word	0xe100032c

00004f14 <spin1_start>:
    4f14:	b510      	push	{r4, lr}
    4f16:	2100      	movs	r1, #0
    4f18:	f7ff ff82 	bl	4e20 <start>
    4f1c:	bd10      	pop	{r4, pc}

00004f1e <spin1_delay_us>:
    4f1e:	b510      	push	{r4, lr}
    4f20:	f7fb f9cc 	bl	2bc <sark_delay_us>
    4f24:	bd10      	pop	{r4, pc}

00004f26 <spin1_memcpy>:
    4f26:	2300      	movs	r3, #0
    4f28:	b510      	push	{r4, lr}
    4f2a:	429a      	cmp	r2, r3
    4f2c:	d100      	bne.n	4f30 <spin1_memcpy+0xa>
    4f2e:	bd10      	pop	{r4, pc}
    4f30:	5ccc      	ldrb	r4, [r1, r3]
    4f32:	54c4      	strb	r4, [r0, r3]
    4f34:	3301      	adds	r3, #1
    4f36:	e7f8      	b.n	4f2a <spin1_memcpy+0x4>

00004f38 <spin1_get_core_id>:
    4f38:	4b01      	ldr	r3, [pc, #4]	; (4f40 <spin1_get_core_id+0x8>)
    4f3a:	6818      	ldr	r0, [r3, #0]
    4f3c:	4770      	bx	lr
    4f3e:	46c0      	nop			; (mov r8, r8)
    4f40:	00400530 	.word	0x00400530

00004f44 <spin1_get_chip_id>:
    4f44:	4b01      	ldr	r3, [pc, #4]	; (4f4c <spin1_get_chip_id+0x8>)
    4f46:	8818      	ldrh	r0, [r3, #0]
    4f48:	4770      	bx	lr
    4f4a:	46c0      	nop			; (mov r8, r8)
    4f4c:	e5007f00 	.word	0xe5007f00

00004f50 <spin1_malloc>:
    4f50:	b510      	push	{r4, lr}
    4f52:	2101      	movs	r1, #1
    4f54:	f7ff fa12 	bl	437c <sark_alloc>
    4f58:	bd10      	pop	{r4, pc}
	...

00004f5c <schedule_sysmode>:
    4f5c:	b5f0      	push	{r4, r5, r6, r7, lr}
    4f5e:	b085      	sub	sp, #20
    4f60:	9003      	str	r0, [sp, #12]
    4f62:	9b03      	ldr	r3, [sp, #12]
    4f64:	4d1e      	ldr	r5, [pc, #120]	; (4fe0 <schedule_sysmode+0x84>)
    4f66:	00de      	lsls	r6, r3, #3
    4f68:	19ab      	adds	r3, r5, r6
    4f6a:	685c      	ldr	r4, [r3, #4]
    4f6c:	0008      	movs	r0, r1
    4f6e:	2c00      	cmp	r4, #0
    4f70:	dc04      	bgt.n	4f7c <schedule_sysmode+0x20>
    4f72:	5973      	ldr	r3, [r6, r5]
    4f74:	0011      	movs	r1, r2
    4f76:	4798      	blx	r3
    4f78:	b005      	add	sp, #20
    4f7a:	bdf0      	pop	{r4, r5, r6, r7, pc}
    4f7c:	3c01      	subs	r4, #1
    4f7e:	21c8      	movs	r1, #200	; 0xc8
    4f80:	0027      	movs	r7, r4
    4f82:	434f      	muls	r7, r1
    4f84:	4b17      	ldr	r3, [pc, #92]	; (4fe4 <schedule_sysmode+0x88>)
    4f86:	9701      	str	r7, [sp, #4]
    4f88:	19df      	adds	r7, r3, r7
    4f8a:	6879      	ldr	r1, [r7, #4]
    4f8c:	9102      	str	r1, [sp, #8]
    4f8e:	3101      	adds	r1, #1
    4f90:	468c      	mov	ip, r1
    4f92:	4664      	mov	r4, ip
    4f94:	210f      	movs	r1, #15
    4f96:	400c      	ands	r4, r1
    4f98:	9901      	ldr	r1, [sp, #4]
    4f9a:	46a4      	mov	ip, r4
    4f9c:	58c9      	ldr	r1, [r1, r3]
    4f9e:	428c      	cmp	r4, r1
    4fa0:	d014      	beq.n	4fcc <schedule_sysmode+0x70>
    4fa2:	9c02      	ldr	r4, [sp, #8]
    4fa4:	210c      	movs	r1, #12
    4fa6:	434c      	muls	r4, r1
    4fa8:	0021      	movs	r1, r4
    4faa:	9c01      	ldr	r4, [sp, #4]
    4fac:	190c      	adds	r4, r1, r4
    4fae:	191b      	adds	r3, r3, r4
    4fb0:	5971      	ldr	r1, [r6, r5]
    4fb2:	6099      	str	r1, [r3, #8]
    4fb4:	60d8      	str	r0, [r3, #12]
    4fb6:	611a      	str	r2, [r3, #16]
    4fb8:	4663      	mov	r3, ip
    4fba:	607b      	str	r3, [r7, #4]
    4fbc:	9b03      	ldr	r3, [sp, #12]
    4fbe:	2b02      	cmp	r3, #2
    4fc0:	d1da      	bne.n	4f78 <schedule_sysmode+0x1c>
    4fc2:	4a09      	ldr	r2, [pc, #36]	; (4fe8 <schedule_sysmode+0x8c>)
    4fc4:	6bd3      	ldr	r3, [r2, #60]	; 0x3c
    4fc6:	3301      	adds	r3, #1
    4fc8:	63d3      	str	r3, [r2, #60]	; 0x3c
    4fca:	e7d5      	b.n	4f78 <schedule_sysmode+0x1c>
    4fcc:	4b06      	ldr	r3, [pc, #24]	; (4fe8 <schedule_sysmode+0x8c>)
    4fce:	2201      	movs	r2, #1
    4fd0:	6859      	ldr	r1, [r3, #4]
    4fd2:	430a      	orrs	r2, r1
    4fd4:	605a      	str	r2, [r3, #4]
    4fd6:	6a1a      	ldr	r2, [r3, #32]
    4fd8:	3201      	adds	r2, #1
    4fda:	621a      	str	r2, [r3, #32]
    4fdc:	e7cc      	b.n	4f78 <schedule_sysmode+0x1c>
    4fde:	46c0      	nop			; (mov r8, r8)
    4fe0:	004007b0 	.word	0x004007b0
    4fe4:	00400204 	.word	0x00400204
    4fe8:	00400608 	.word	0x00400608

00004fec <spin1_schedule_callback>:
    4fec:	b5f7      	push	{r0, r1, r2, r4, r5, r6, r7, lr}
    4fee:	001e      	movs	r6, r3
    4ff0:	000c      	movs	r4, r1
    4ff2:	9201      	str	r2, [sp, #4]
    4ff4:	3e01      	subs	r6, #1
    4ff6:	0005      	movs	r5, r0
    4ff8:	f7fb e8d6 	blx	1a8 <cpu_irq_disable>
    4ffc:	21c8      	movs	r1, #200	; 0xc8
    4ffe:	000b      	movs	r3, r1
    5000:	4373      	muls	r3, r6
    5002:	4a13      	ldr	r2, [pc, #76]	; (5050 <spin1_schedule_callback+0x64>)
    5004:	9300      	str	r3, [sp, #0]
    5006:	18d7      	adds	r7, r2, r3
    5008:	687b      	ldr	r3, [r7, #4]
    500a:	260f      	movs	r6, #15
    500c:	469c      	mov	ip, r3
    500e:	3301      	adds	r3, #1
    5010:	401e      	ands	r6, r3
    5012:	9b00      	ldr	r3, [sp, #0]
    5014:	589b      	ldr	r3, [r3, r2]
    5016:	429e      	cmp	r6, r3
    5018:	d010      	beq.n	503c <spin1_schedule_callback+0x50>
    501a:	230c      	movs	r3, #12
    501c:	4661      	mov	r1, ip
    501e:	4359      	muls	r1, r3
    5020:	000b      	movs	r3, r1
    5022:	9900      	ldr	r1, [sp, #0]
    5024:	607e      	str	r6, [r7, #4]
    5026:	1859      	adds	r1, r3, r1
    5028:	1852      	adds	r2, r2, r1
    502a:	60d4      	str	r4, [r2, #12]
    502c:	9b01      	ldr	r3, [sp, #4]
    502e:	2401      	movs	r4, #1
    5030:	6095      	str	r5, [r2, #8]
    5032:	6113      	str	r3, [r2, #16]
    5034:	f7fb e8d0 	blx	1d8 <cpu_int_restore>
    5038:	0020      	movs	r0, r4
    503a:	bdfe      	pop	{r1, r2, r3, r4, r5, r6, r7, pc}
    503c:	4b05      	ldr	r3, [pc, #20]	; (5054 <spin1_schedule_callback+0x68>)
    503e:	2201      	movs	r2, #1
    5040:	6859      	ldr	r1, [r3, #4]
    5042:	2400      	movs	r4, #0
    5044:	430a      	orrs	r2, r1
    5046:	605a      	str	r2, [r3, #4]
    5048:	6a1a      	ldr	r2, [r3, #32]
    504a:	3201      	adds	r2, #1
    504c:	621a      	str	r2, [r3, #32]
    504e:	e7f1      	b.n	5034 <spin1_schedule_callback+0x48>
    5050:	00400204 	.word	0x00400204
    5054:	00400608 	.word	0x00400608

00005058 <sark_pre_main>:
    5058:	b510      	push	{r4, lr}
    505a:	f7fe fe19 	bl	3c90 <sark_call_cpp_constructors>
    505e:	2006      	movs	r0, #6
    5060:	f7fe fda0 	bl	3ba4 <sark_cpu_state>
    5064:	235b      	movs	r3, #91	; 0x5b
    5066:	2201      	movs	r2, #1
    5068:	701a      	strb	r2, [r3, #0]
    506a:	f7fe fda3 	bl	3bb4 <sark_app_lead>
    506e:	4b04      	ldr	r3, [pc, #16]	; (5080 <sark_pre_main+0x28>)
    5070:	681b      	ldr	r3, [r3, #0]
    5072:	1a18      	subs	r0, r3, r0
    5074:	4243      	negs	r3, r0
    5076:	4158      	adcs	r0, r3
    5078:	4b02      	ldr	r3, [pc, #8]	; (5084 <sark_pre_main+0x2c>)
    507a:	7018      	strb	r0, [r3, #0]
    507c:	bd10      	pop	{r4, pc}
    507e:	46c0      	nop			; (mov r8, r8)
    5080:	00400530 	.word	0x00400530
    5084:	00400658 	.word	0x00400658

00005088 <sark_post_main>:
    5088:	b510      	push	{r4, lr}
    508a:	200b      	movs	r0, #11
    508c:	f7fe fd8a 	bl	3ba4 <sark_cpu_state>
    5090:	bd10      	pop	{r4, pc}
	...

00005094 <cc_rx_ready_isr>:
    5094:	e24ee004 	sub	lr, lr, #4
    5098:	e92d500f 	push	{r0, r1, r2, r3, ip, lr}
    509c:	e3a03202 	mov	r3, #536870912	; 0x20000000
    50a0:	e593200c 	ldr	r2, [r3, #12]
    50a4:	e59f0054 	ldr	r0, [pc, #84]	; 5100 <cc_rx_ready_isr+0x6c>
    50a8:	e2122802 	ands	r2, r2, #131072	; 0x20000
    50ac:	0a00000a 	beq	50dc <cc_rx_ready_isr+0x48>
    50b0:	e5932010 	ldr	r2, [r3, #16]
    50b4:	e5931014 	ldr	r1, [r3, #20]
    50b8:	e5903028 	ldr	r3, [r0, #40]	; 0x28
    50bc:	e3530000 	cmp	r3, #0
    50c0:	13a00005 	movne	r0, #5
    50c4:	1a000009 	bne	50f0 <cc_rx_ready_isr+0x5c>
    50c8:	e59f2034 	ldr	r2, [pc, #52]	; 5104 <cc_rx_ready_isr+0x70>
    50cc:	e5923010 	ldr	r3, [r2, #16]
    50d0:	e2833001 	add	r3, r3, #1
    50d4:	e5823010 	str	r3, [r2, #16]
    50d8:	ea000005 	b	50f4 <cc_rx_ready_isr+0x60>
    50dc:	e5931014 	ldr	r1, [r3, #20]
    50e0:	e5903000 	ldr	r3, [r0]
    50e4:	e3530000 	cmp	r3, #0
    50e8:	0afffff6 	beq	50c8 <cc_rx_ready_isr+0x34>
    50ec:	e1a00002 	mov	r0, r2
    50f0:	ebffec8f 	bl	334 <schedule>
    50f4:	e3a0341f 	mov	r3, #520093696	; 0x1f000000
    50f8:	e5833030 	str	r3, [r3, #48]	; 0x30
    50fc:	e8fd900f 	ldm	sp!, {r0, r1, r2, r3, ip, pc}^
    5100:	004007b0 	.word	0x004007b0
    5104:	00400608 	.word	0x00400608

00005108 <cc_rx_ready_fiqsr>:
    5108:	e24ee004 	sub	lr, lr, #4
    510c:	e92d500f 	push	{r0, r1, r2, r3, ip, lr}
    5110:	e3a03202 	mov	r3, #536870912	; 0x20000000
    5114:	e593100c 	ldr	r1, [r3, #12]
    5118:	e59f201c 	ldr	r2, [pc, #28]	; 513c <cc_rx_ready_fiqsr+0x34>
    511c:	e2111802 	ands	r1, r1, #131072	; 0x20000
    5120:	15931010 	ldrne	r1, [r3, #16]
    5124:	05930014 	ldreq	r0, [r3, #20]
    5128:	15930014 	ldrne	r0, [r3, #20]
    512c:	05923000 	ldreq	r3, [r2]
    5130:	15923028 	ldrne	r3, [r2, #40]	; 0x28
    5134:	e12fff33 	blx	r3
    5138:	e8fd900f 	ldm	sp!, {r0, r1, r2, r3, ip, pc}^
    513c:	004007b0 	.word	0x004007b0

00005140 <cc_fr_ready_isr>:
    5140:	e24ee004 	sub	lr, lr, #4
    5144:	e92d500f 	push	{r0, r1, r2, r3, ip, lr}
    5148:	e3a03202 	mov	r3, #536870912	; 0x20000000
    514c:	e593200c 	ldr	r2, [r3, #12]
    5150:	e59f0054 	ldr	r0, [pc, #84]	; 51ac <cc_fr_ready_isr+0x6c>
    5154:	e2122802 	ands	r2, r2, #131072	; 0x20000
    5158:	0a00000c 	beq	5190 <cc_fr_ready_isr+0x50>
    515c:	e5932010 	ldr	r2, [r3, #16]
    5160:	e5931014 	ldr	r1, [r3, #20]
    5164:	e5903038 	ldr	r3, [r0, #56]	; 0x38
    5168:	e3530000 	cmp	r3, #0
    516c:	13a00007 	movne	r0, #7
    5170:	1a00000b 	bne	51a4 <cc_fr_ready_isr+0x64>
    5174:	e59f2034 	ldr	r2, [pc, #52]	; 51b0 <cc_fr_ready_isr+0x70>
    5178:	e5923034 	ldr	r3, [r2, #52]	; 0x34
    517c:	e2833001 	add	r3, r3, #1
    5180:	e5823034 	str	r3, [r2, #52]	; 0x34
    5184:	e3a0341f 	mov	r3, #520093696	; 0x1f000000
    5188:	e5833030 	str	r3, [r3, #48]	; 0x30
    518c:	e8fd900f 	ldm	sp!, {r0, r1, r2, r3, ip, pc}^
    5190:	e5931014 	ldr	r1, [r3, #20]
    5194:	e5903030 	ldr	r3, [r0, #48]	; 0x30
    5198:	e3530000 	cmp	r3, #0
    519c:	0afffff4 	beq	5174 <cc_fr_ready_isr+0x34>
    51a0:	e3a00006 	mov	r0, #6
    51a4:	ebffec62 	bl	334 <schedule>
    51a8:	eafffff5 	b	5184 <cc_fr_ready_isr+0x44>
    51ac:	004007b0 	.word	0x004007b0
    51b0:	00400608 	.word	0x00400608

000051b4 <cc_fr_ready_fiqsr>:
    51b4:	e24ee004 	sub	lr, lr, #4
    51b8:	e92d500f 	push	{r0, r1, r2, r3, ip, lr}
    51bc:	e3a03202 	mov	r3, #536870912	; 0x20000000
    51c0:	e593100c 	ldr	r1, [r3, #12]
    51c4:	e59f201c 	ldr	r2, [pc, #28]	; 51e8 <cc_fr_ready_fiqsr+0x34>
    51c8:	e2111802 	ands	r1, r1, #131072	; 0x20000
    51cc:	15931010 	ldrne	r1, [r3, #16]
    51d0:	05930014 	ldreq	r0, [r3, #20]
    51d4:	15930014 	ldrne	r0, [r3, #20]
    51d8:	05923030 	ldreq	r3, [r2, #48]	; 0x30
    51dc:	15923038 	ldrne	r3, [r2, #56]	; 0x38
    51e0:	e12fff33 	blx	r3
    51e4:	e8fd900f 	ldm	sp!, {r0, r1, r2, r3, ip, pc}^
    51e8:	004007b0 	.word	0x004007b0

000051ec <cc_tx_empty_isr>:
    51ec:	e24ee004 	sub	lr, lr, #4
    51f0:	e92d501f 	push	{r0, r1, r2, r3, r4, ip, lr}
    51f4:	e59f1078 	ldr	r1, [pc, #120]	; 5274 <cc_tx_empty_isr+0x88>
    51f8:	e3a03202 	mov	r3, #536870912	; 0x20000000
    51fc:	e3a02000 	mov	r2, #0
    5200:	e3a0c00c 	mov	ip, #12
    5204:	e5832000 	str	r2, [r3]
    5208:	e5912000 	ldr	r2, [r1]
    520c:	e5910004 	ldr	r0, [r1, #4]
    5210:	e1520000 	cmp	r2, r0
    5214:	0a000012 	beq	5264 <cc_tx_empty_isr+0x78>
    5218:	e5930000 	ldr	r0, [r3]
    521c:	e3100101 	tst	r0, #1073741824	; 0x40000000
    5220:	0a000003 	beq	5234 <cc_tx_empty_isr+0x48>
    5224:	e3a02001 	mov	r2, #1
    5228:	e3a0341f 	mov	r3, #520093696	; 0x1f000000
    522c:	e5832030 	str	r2, [r3, #48]	; 0x30
    5230:	e8fd901f 	ldm	sp!, {r0, r1, r2, r3, r4, ip, pc}^
    5234:	e020129c 	mla	r0, ip, r2, r1
    5238:	e2822001 	add	r2, r2, #1
    523c:	e590e008 	ldr	lr, [r0, #8]
    5240:	e590400c 	ldr	r4, [r0, #12]
    5244:	e5900010 	ldr	r0, [r0, #16]
    5248:	e202200f 	and	r2, r2, #15
    524c:	e3100802 	tst	r0, #131072	; 0x20000
    5250:	e5812000 	str	r2, [r1]
    5254:	e5830000 	str	r0, [r3]
    5258:	15834004 	strne	r4, [r3, #4]
    525c:	e583e008 	str	lr, [r3, #8]
    5260:	eaffffe8 	b	5208 <cc_tx_empty_isr+0x1c>
    5264:	e3a02b02 	mov	r2, #2048	; 0x800
    5268:	e3a0341f 	mov	r3, #520093696	; 0x1f000000
    526c:	e5832014 	str	r2, [r3, #20]
    5270:	eaffffeb 	b	5224 <cc_tx_empty_isr+0x38>
    5274:	004007f0 	.word	0x004007f0

00005278 <dma_done_isr>:
    5278:	e24ee004 	sub	lr, lr, #4
    527c:	e92d503f 	push	{r0, r1, r2, r3, r4, r5, ip, lr}
    5280:	e59f0078 	ldr	r0, [pc, #120]	; 5300 <dma_done_isr+0x88>
    5284:	e3a03008 	mov	r3, #8
    5288:	e3a0c101 	mov	ip, #1073741824	; 0x40000000
    528c:	e58c3010 	str	r3, [ip, #16]
    5290:	e5903000 	ldr	r3, [r0]
    5294:	e3a0e014 	mov	lr, #20
    5298:	e022039e 	mla	r2, lr, r3, r0
    529c:	e5904004 	ldr	r4, [r0, #4]
    52a0:	e2833001 	add	r3, r3, #1
    52a4:	e203300f 	and	r3, r3, #15
    52a8:	e1530004 	cmp	r3, r4
    52ac:	e5921008 	ldr	r1, [r2, #8]
    52b0:	e5803000 	str	r3, [r0]
    52b4:	e592200c 	ldr	r2, [r2, #12]
    52b8:	0a000006 	beq	52d8 <dma_done_isr+0x60>
    52bc:	e023039e 	mla	r3, lr, r3, r0
    52c0:	e593e014 	ldr	lr, [r3, #20]
    52c4:	e5930018 	ldr	r0, [r3, #24]
    52c8:	e5933010 	ldr	r3, [r3, #16]
    52cc:	e58c3004 	str	r3, [ip, #4]
    52d0:	e58ce008 	str	lr, [ip, #8]
    52d4:	e58c000c 	str	r0, [ip, #12]
    52d8:	e59f3024 	ldr	r3, [pc, #36]	; 5304 <dma_done_isr+0x8c>
    52dc:	e5933008 	ldr	r3, [r3, #8]
    52e0:	e3530000 	cmp	r3, #0
    52e4:	0a000001 	beq	52f0 <dma_done_isr+0x78>
    52e8:	e3a00001 	mov	r0, #1
    52ec:	ebffec10 	bl	334 <schedule>
    52f0:	e3a02001 	mov	r2, #1
    52f4:	e3a0341f 	mov	r3, #520093696	; 0x1f000000
    52f8:	e5832030 	str	r2, [r3, #48]	; 0x30
    52fc:	e8fd903f 	ldm	sp!, {r0, r1, r2, r3, r4, r5, ip, pc}^
    5300:	0040065c 	.word	0x0040065c
    5304:	004007b0 	.word	0x004007b0

00005308 <dma_done_fiqsr>:
    5308:	e24ee004 	sub	lr, lr, #4
    530c:	e92d503f 	push	{r0, r1, r2, r3, r4, r5, ip, lr}
    5310:	e59f2060 	ldr	r2, [pc, #96]	; 5378 <dma_done_fiqsr+0x70>
    5314:	e3a03008 	mov	r3, #8
    5318:	e3a0c101 	mov	ip, #1073741824	; 0x40000000
    531c:	e58c3010 	str	r3, [ip, #16]
    5320:	e5923000 	ldr	r3, [r2]
    5324:	e3a0e014 	mov	lr, #20
    5328:	e021239e 	mla	r1, lr, r3, r2
    532c:	e5924004 	ldr	r4, [r2, #4]
    5330:	e2833001 	add	r3, r3, #1
    5334:	e203300f 	and	r3, r3, #15
    5338:	e1530004 	cmp	r3, r4
    533c:	e5910008 	ldr	r0, [r1, #8]
    5340:	e5823000 	str	r3, [r2]
    5344:	e591100c 	ldr	r1, [r1, #12]
    5348:	0a000006 	beq	5368 <dma_done_fiqsr+0x60>
    534c:	e023239e 	mla	r3, lr, r3, r2
    5350:	e593e014 	ldr	lr, [r3, #20]
    5354:	e5932018 	ldr	r2, [r3, #24]
    5358:	e5933010 	ldr	r3, [r3, #16]
    535c:	e58c3004 	str	r3, [ip, #4]
    5360:	e58ce008 	str	lr, [ip, #8]
    5364:	e58c200c 	str	r2, [ip, #12]
    5368:	e59f300c 	ldr	r3, [pc, #12]	; 537c <dma_done_fiqsr+0x74>
    536c:	e5933008 	ldr	r3, [r3, #8]
    5370:	e12fff33 	blx	r3
    5374:	e8fd903f 	ldm	sp!, {r0, r1, r2, r3, r4, r5, ip, pc}^
    5378:	0040065c 	.word	0x0040065c
    537c:	004007b0 	.word	0x004007b0

00005380 <timer1_isr>:
    5380:	e24ee004 	sub	lr, lr, #4
    5384:	e92d500f 	push	{r0, r1, r2, r3, ip, lr}
    5388:	e3a02001 	mov	r2, #1
    538c:	e3a03421 	mov	r3, #553648128	; 0x21000000
    5390:	e583200c 	str	r2, [r3, #12]
    5394:	e59f3060 	ldr	r3, [pc, #96]	; 53fc <timer1_isr+0x7c>
    5398:	e5931000 	ldr	r1, [r3]
    539c:	e0811002 	add	r1, r1, r2
    53a0:	e5831000 	str	r1, [r3]
    53a4:	e59f3054 	ldr	r3, [pc, #84]	; 5400 <timer1_isr+0x80>
    53a8:	e5933010 	ldr	r3, [r3, #16]
    53ac:	e3530000 	cmp	r3, #0
    53b0:	0a00000d 	beq	53ec <timer1_isr+0x6c>
    53b4:	e59f3048 	ldr	r3, [pc, #72]	; 5404 <timer1_isr+0x84>
    53b8:	e5932038 	ldr	r2, [r3, #56]	; 0x38
    53bc:	e3520000 	cmp	r2, #0
    53c0:	0a000006 	beq	53e0 <timer1_isr+0x60>
    53c4:	e5932044 	ldr	r2, [r3, #68]	; 0x44
    53c8:	e5930040 	ldr	r0, [r3, #64]	; 0x40
    53cc:	e2822001 	add	r2, r2, #1
    53d0:	e5832044 	str	r2, [r3, #68]	; 0x44
    53d4:	e593203c 	ldr	r2, [r3, #60]	; 0x3c
    53d8:	e1520000 	cmp	r2, r0
    53dc:	85832040 	strhi	r2, [r3, #64]	; 0x40
    53e0:	e3a02000 	mov	r2, #0
    53e4:	e3a00002 	mov	r0, #2
    53e8:	ebffebd1 	bl	334 <schedule>
    53ec:	e3a02001 	mov	r2, #1
    53f0:	e3a0341f 	mov	r3, #520093696	; 0x1f000000
    53f4:	e5832030 	str	r2, [r3, #48]	; 0x30
    53f8:	e8fd900f 	ldm	sp!, {r0, r1, r2, r3, ip, pc}^
    53fc:	004007a8 	.word	0x004007a8
    5400:	004007b0 	.word	0x004007b0
    5404:	00400608 	.word	0x00400608

00005408 <timer1_fiqsr>:
    5408:	e24ee004 	sub	lr, lr, #4
    540c:	e92d500f 	push	{r0, r1, r2, r3, ip, lr}
    5410:	e3a02001 	mov	r2, #1
    5414:	e3a03421 	mov	r3, #553648128	; 0x21000000
    5418:	e583200c 	str	r2, [r3, #12]
    541c:	e59f301c 	ldr	r3, [pc, #28]	; 5440 <timer1_fiqsr+0x38>
    5420:	e3a01000 	mov	r1, #0
    5424:	e5930000 	ldr	r0, [r3]
    5428:	e0800002 	add	r0, r0, r2
    542c:	e5830000 	str	r0, [r3]
    5430:	e59f300c 	ldr	r3, [pc, #12]	; 5444 <timer1_fiqsr+0x3c>
    5434:	e5933010 	ldr	r3, [r3, #16]
    5438:	e12fff33 	blx	r3
    543c:	e8fd900f 	ldm	sp!, {r0, r1, r2, r3, ip, pc}^
    5440:	004007a8 	.word	0x004007a8
    5444:	004007b0 	.word	0x004007b0

00005448 <soft_int_isr>:
    5448:	e24ee004 	sub	lr, lr, #4
    544c:	e92d500f 	push	{r0, r1, r2, r3, ip, lr}
    5450:	e3a0341f 	mov	r3, #520093696	; 0x1f000000
    5454:	e3a02002 	mov	r2, #2
    5458:	e583201c 	str	r2, [r3, #28]
    545c:	e59f303c 	ldr	r3, [pc, #60]	; 54a0 <soft_int_isr+0x58>
    5460:	e5933020 	ldr	r3, [r3, #32]
    5464:	e3530000 	cmp	r3, #0
    5468:	0a000005 	beq	5484 <soft_int_isr+0x3c>
    546c:	e59f3030 	ldr	r3, [pc, #48]	; 54a4 <soft_int_isr+0x5c>
    5470:	e3a00004 	mov	r0, #4
    5474:	e5932000 	ldr	r2, [r3]
    5478:	e59f3028 	ldr	r3, [pc, #40]	; 54a8 <soft_int_isr+0x60>
    547c:	e5931000 	ldr	r1, [r3]
    5480:	ebffebab 	bl	334 <schedule>
    5484:	e59f3020 	ldr	r3, [pc, #32]	; 54ac <soft_int_isr+0x64>
    5488:	e3a02000 	mov	r2, #0
    548c:	e5c32000 	strb	r2, [r3]
    5490:	e3a02001 	mov	r2, #1
    5494:	e3a0341f 	mov	r3, #520093696	; 0x1f000000
    5498:	e5832030 	str	r2, [r3, #48]	; 0x30
    549c:	e8fd900f 	ldm	sp!, {r0, r1, r2, r3, ip, pc}^
    54a0:	004007b0 	.word	0x004007b0
    54a4:	00400654 	.word	0x00400654
    54a8:	004007ac 	.word	0x004007ac
    54ac:	0040052c 	.word	0x0040052c

000054b0 <soft_int_fiqsr>:
    54b0:	e24ee004 	sub	lr, lr, #4
    54b4:	e92d500f 	push	{r0, r1, r2, r3, ip, lr}
    54b8:	e3a02002 	mov	r2, #2
    54bc:	e3a0341f 	mov	r3, #520093696	; 0x1f000000
    54c0:	e583201c 	str	r2, [r3, #28]
    54c4:	e59f2024 	ldr	r2, [pc, #36]	; 54f0 <soft_int_fiqsr+0x40>
    54c8:	e59f3024 	ldr	r3, [pc, #36]	; 54f4 <soft_int_fiqsr+0x44>
    54cc:	e5921000 	ldr	r1, [r2]
    54d0:	e59f2020 	ldr	r2, [pc, #32]	; 54f8 <soft_int_fiqsr+0x48>
    54d4:	e5933020 	ldr	r3, [r3, #32]
    54d8:	e5920000 	ldr	r0, [r2]
    54dc:	e12fff33 	blx	r3
    54e0:	e59f3014 	ldr	r3, [pc, #20]	; 54fc <soft_int_fiqsr+0x4c>
    54e4:	e3a02000 	mov	r2, #0
    54e8:	e5c32000 	strb	r2, [r3]
    54ec:	e8fd900f 	ldm	sp!, {r0, r1, r2, r3, ip, pc}^
    54f0:	00400654 	.word	0x00400654
    54f4:	004007b0 	.word	0x004007b0
    54f8:	004007ac 	.word	0x004007ac
    54fc:	0040052c 	.word	0x0040052c

00005500 <__spin1_start_from_arm>:
    5500:	e51ff004 	ldr	pc, [pc, #-4]	; 5504 <__spin1_start_from_arm+0x4>
    5504:	00004f15 	.word	0x00004f15

00005508 <__io_printf_from_arm>:
    5508:	e51ff004 	ldr	pc, [pc, #-4]	; 550c <__io_printf_from_arm+0x4>
    550c:	00004695 	.word	0x00004695

00005510 <__init_array_start>:
    5510:	00001d48 	.word	0x00001d48

00005514 <__init_array_end>:
    5514:	474f4c5b 	.word	0x474f4c5b
    5518:	56454c5f 	.word	0x56454c5f
    551c:	495f4c45 	.word	0x495f4c45
    5520:	5d4f464e 	.word	0x5d4f464e
    5524:	41090920 	.word	0x41090920
    5528:	72204b43 	.word	0x72204b43
    552c:	000a6365 	.word	0x000a6365
    5530:	474f4c5b 	.word	0x474f4c5b
    5534:	56454c5f 	.word	0x56454c5f
    5538:	495f4c45 	.word	0x495f4c45
    553c:	5d4f464e 	.word	0x5d4f464e
    5540:	6e657320 	.word	0x6e657320
    5544:	5f6e5f64 	.word	0x5f6e5f64
    5548:	616c6564 	.word	0x616c6564
    554c:	74207379 	.word	0x74207379
    5550:	7830206f 	.word	0x7830206f
    5554:	78343025 	.word	0x78343025
    5558:	3230252e 	.word	0x3230252e
    555c:	4e202c75 	.word	0x4e202c75
    5560:	25203d20 	.word	0x25203d20
    5564:	00000a75 	.word	0x00000a75
    5568:	474f4c5b 	.word	0x474f4c5b
    556c:	56454c5f 	.word	0x56454c5f
    5570:	495f4c45 	.word	0x495f4c45
    5574:	5d4f464e 	.word	0x5d4f464e
    5578:	2d200920 	.word	0x2d200920
    557c:	69615720 	.word	0x69615720
    5580:	676e6974 	.word	0x676e6974
    5584:	726f6620 	.word	0x726f6620
    5588:	4b434120 	.word	0x4b434120
    558c:	0000000a 	.word	0x0000000a
    5590:	474f4c5b 	.word	0x474f4c5b
    5594:	56454c5f 	.word	0x56454c5f
    5598:	495f4c45 	.word	0x495f4c45
    559c:	5d4f464e 	.word	0x5d4f464e
    55a0:	20090920 	.word	0x20090920
    55a4:	6157202d 	.word	0x6157202d
    55a8:	64657469 	.word	0x64657469
    55ac:	20752520 	.word	0x20752520
    55b0:	656d6974 	.word	0x656d6974
    55b4:	00000a73 	.word	0x00000a73
    55b8:	474f4c5b 	.word	0x474f4c5b
    55bc:	56454c5f 	.word	0x56454c5f
    55c0:	495f4c45 	.word	0x495f4c45
    55c4:	5d4f464e 	.word	0x5d4f464e
    55c8:	74614d20 	.word	0x74614d20
    55cc:	20786972 	.word	0x20786972
    55d0:	656e6567 	.word	0x656e6567
    55d4:	6f746172 	.word	0x6f746172
    55d8:	000a7372 	.word	0x000a7372
    55dc:	474f4c5b 	.word	0x474f4c5b
    55e0:	56454c5f 	.word	0x56454c5f
    55e4:	495f4c45 	.word	0x495f4c45
    55e8:	5d4f464e 	.word	0x5d4f464e
    55ec:	65520920 	.word	0x65520920
    55f0:	74736967 	.word	0x74736967
    55f4:	6e697265 	.word	0x6e697265
    55f8:	6c632067 	.word	0x6c632067
    55fc:	20737361 	.word	0x20737361
    5600:	656d616e 	.word	0x656d616e
    5604:	73616820 	.word	0x73616820
    5608:	75252068 	.word	0x75252068
    560c:	74697720 	.word	0x74697720
    5610:	61662068 	.word	0x61662068
    5614:	726f7463 	.word	0x726f7463
    5618:	00000a79 	.word	0x00000a79
    561c:	474f4c5b 	.word	0x474f4c5b
    5620:	56454c5f 	.word	0x56454c5f
    5624:	455f4c45 	.word	0x455f4c45
    5628:	524f5252 	.word	0x524f5252
    562c:	6143205d 	.word	0x6143205d
    5630:	746f6e6e 	.word	0x746f6e6e
    5634:	67657220 	.word	0x67657220
    5638:	65747369 	.word	0x65747369
    563c:	65672072 	.word	0x65672072
    5640:	6172656e 	.word	0x6172656e
    5644:	20726f74 	.word	0x20726f74
    5648:	68746977 	.word	0x68746977
    564c:	3a444920 	.word	0x3a444920
    5650:	2d207525 	.word	0x2d207525
    5654:	63614620 	.word	0x63614620
    5658:	79726f74 	.word	0x79726f74
    565c:	62617420 	.word	0x62617420
    5660:	6620656c 	.word	0x6620656c
    5664:	206c6c75 	.word	0x206c6c75
    5668:	70616328 	.word	0x70616328
    566c:	74696361 	.word	0x74696361
    5670:	75252079 	.word	0x75252079
    5674:	00000a29 	.word	0x00000a29
    5678:	474f4c5b 	.word	0x474f4c5b
    567c:	56454c5f 	.word	0x56454c5f
    5680:	495f4c45 	.word	0x495f4c45
    5684:	5d4f464e 	.word	0x5d4f464e
    5688:	6e6f4320 	.word	0x6e6f4320
    568c:	7463656e 	.word	0x7463656e
    5690:	6720726f 	.word	0x6720726f
    5694:	72656e65 	.word	0x72656e65
    5698:	726f7461 	.word	0x726f7461
    569c:	00000a73 	.word	0x00000a73
    56a0:	474f4c5b 	.word	0x474f4c5b
    56a4:	56454c5f 	.word	0x56454c5f
    56a8:	495f4c45 	.word	0x495f4c45
    56ac:	5d4f464e 	.word	0x5d4f464e
    56b0:	72615020 	.word	0x72615020
    56b4:	74656d61 	.word	0x74656d61
    56b8:	67207265 	.word	0x67207265
    56bc:	72656e65 	.word	0x72656e65
    56c0:	726f7461 	.word	0x726f7461
    56c4:	00000a73 	.word	0x00000a73
    56c8:	474f4c5b 	.word	0x474f4c5b
    56cc:	56454c5f 	.word	0x56454c5f
    56d0:	495f4c45 	.word	0x495f4c45
    56d4:	5d4f464e 	.word	0x5d4f464e
    56d8:	20752520 	.word	0x20752520
    56dc:	65747962 	.word	0x65747962
    56e0:	65722073 	.word	0x65722073
    56e4:	72697571 	.word	0x72697571
    56e8:	66206465 	.word	0x66206465
    56ec:	6720726f 	.word	0x6720726f
    56f0:	72656e65 	.word	0x72656e65
    56f4:	726f7461 	.word	0x726f7461
    56f8:	63616620 	.word	0x63616620
    56fc:	79726f74 	.word	0x79726f74
    5700:	0000000a 	.word	0x0000000a
    5704:	474f4c5b 	.word	0x474f4c5b
    5708:	56454c5f 	.word	0x56454c5f
    570c:	495f4c45 	.word	0x495f4c45
    5710:	5d4f464e 	.word	0x5d4f464e
    5714:	20752520 	.word	0x20752520
    5718:	65747962 	.word	0x65747962
    571c:	666f2073 	.word	0x666f2073
    5720:	65726620 	.word	0x65726620
    5724:	54442065 	.word	0x54442065
    5728:	000a4d43 	.word	0x000a4d43
    572c:	474f4c5b 	.word	0x474f4c5b
    5730:	56454c5f 	.word	0x56454c5f
    5734:	495f4c45 	.word	0x495f4c45
    5738:	5d4f464e 	.word	0x5d4f464e
    573c:	61745320 	.word	0x61745320
    5740:	6e697472 	.word	0x6e697472
    5744:	6f542067 	.word	0x6f542067
    5748:	69754220 	.word	0x69754220
    574c:	4320646c 	.word	0x4320646c
    5750:	656e6e6f 	.word	0x656e6e6f
    5754:	726f7463 	.word	0x726f7463
    5758:	00000a73 	.word	0x00000a73
    575c:	474f4c5b 	.word	0x474f4c5b
    5760:	56454c5f 	.word	0x56454c5f
    5764:	495f4c45 	.word	0x495f4c45
    5768:	5d4f464e 	.word	0x5d4f464e
    576c:	69684320 	.word	0x69684320
    5770:	75252070 	.word	0x75252070
    5774:	6f43202c 	.word	0x6f43202c
    5778:	25206572 	.word	0x25206572
    577c:	00000a75 	.word	0x00000a75
    5780:	474f4c5b 	.word	0x474f4c5b
    5784:	56454c5f 	.word	0x56454c5f
    5788:	495f4c45 	.word	0x495f4c45
    578c:	5d4f464e 	.word	0x5d4f464e
    5790:	52445320 	.word	0x52445320
    5794:	64204d41 	.word	0x64204d41
    5798:	20617461 	.word	0x20617461
    579c:	69676562 	.word	0x69676562
    57a0:	6120736e 	.word	0x6120736e
    57a4:	64612074 	.word	0x64612074
    57a8:	73657264 	.word	0x73657264
    57ac:	25203a73 	.word	0x25203a73
    57b0:	0a783830 	.word	0x0a783830
    57b4:	00000000 	.word	0x00000000
    57b8:	474f4c5b 	.word	0x474f4c5b
    57bc:	56454c5f 	.word	0x56454c5f
    57c0:	495f4c45 	.word	0x495f4c45
    57c4:	5d4f464e 	.word	0x5d4f464e
    57c8:	65520920 	.word	0x65520920
    57cc:	6e696461 	.word	0x6e696461
    57d0:	44532067 	.word	0x44532067
    57d4:	204d4152 	.word	0x204d4152
    57d8:	30207461 	.word	0x30207461
    57dc:	38302578 	.word	0x38302578
    57e0:	00000a78 	.word	0x00000a78
    57e4:	474f4c5b 	.word	0x474f4c5b
    57e8:	56454c5f 	.word	0x56454c5f
    57ec:	495f4c45 	.word	0x495f4c45
    57f0:	5d4f464e 	.word	0x5d4f464e
    57f4:	6c6c4120 	.word	0x6c6c4120
    57f8:	7461636f 	.word	0x7461636f
    57fc:	20676e69 	.word	0x20676e69
    5800:	6d207075 	.word	0x6d207075
    5804:	726f6d65 	.word	0x726f6d65
    5808:	6f662079 	.word	0x6f662079
    580c:	61742072 	.word	0x61742072
    5810:	75252067 	.word	0x75252067
    5814:	0000000a 	.word	0x0000000a
    5818:	474f4c5b 	.word	0x474f4c5b
    581c:	56454c5f 	.word	0x56454c5f
    5820:	495f4c45 	.word	0x495f4c45
    5824:	5d4f464e 	.word	0x5d4f464e
    5828:	78646920 	.word	0x78646920
    582c:	6c65642f 	.word	0x6c65642f
    5830:	62207961 	.word	0x62207961
    5834:	65666675 	.word	0x65666675
    5838:	69732072 	.word	0x69732072
    583c:	3d20657a 	.word	0x3d20657a
    5840:	20752520 	.word	0x20752520
    5844:	65747962 	.word	0x65747962
    5848:	00000a73 	.word	0x00000a73
    584c:	474f4c5b 	.word	0x474f4c5b
    5850:	56454c5f 	.word	0x56454c5f
    5854:	495f4c45 	.word	0x495f4c45
    5858:	5d4f464e 	.word	0x5d4f464e
    585c:	20752520 	.word	0x20752520
    5860:	65747962 	.word	0x65747962
    5864:	666f2073 	.word	0x666f2073
    5868:	65726620 	.word	0x65726620
    586c:	44532065 	.word	0x44532065
    5870:	0a4d4152 	.word	0x0a4d4152
    5874:	00000000 	.word	0x00000000
    5878:	474f4c5b 	.word	0x474f4c5b
    587c:	56454c5f 	.word	0x56454c5f
    5880:	455f4c45 	.word	0x455f4c45
    5884:	524f5252 	.word	0x524f5252
    5888:	6e55205d 	.word	0x6e55205d
    588c:	656c6261 	.word	0x656c6261
    5890:	206f7420 	.word	0x206f7420
    5894:	6f6c6c61 	.word	0x6f6c6c61
    5898:	65746163 	.word	0x65746163
    589c:	6d656d20 	.word	0x6d656d20
    58a0:	2079726f 	.word	0x2079726f
    58a4:	20726f66 	.word	0x20726f66
    58a8:	2d657270 	.word	0x2d657270
    58ac:	616c6564 	.word	0x616c6564
    58b0:	61702079 	.word	0x61702079
    58b4:	0a737269 	.word	0x0a737269
    58b8:	00000000 	.word	0x00000000
    58bc:	474f4c5b 	.word	0x474f4c5b
    58c0:	56454c5f 	.word	0x56454c5f
    58c4:	495f4c45 	.word	0x495f4c45
    58c8:	5d4f464e 	.word	0x5d4f464e
    58cc:	3d0a0a20 	.word	0x3d0a0a20
    58d0:	3d203d20 	.word	0x3d203d20
    58d4:	3d203d20 	.word	0x3d203d20
    58d8:	0a0a3d20 	.word	0x0a0a3d20
    58dc:	0000000a 	.word	0x0000000a
    58e0:	474f4c5b 	.word	0x474f4c5b
    58e4:	56454c5f 	.word	0x56454c5f
    58e8:	495f4c45 	.word	0x495f4c45
    58ec:	5d4f464e 	.word	0x5d4f464e
    58f0:	6e694620 	.word	0x6e694620
    58f4:	65687369 	.word	0x65687369
    58f8:	6e4f2064 	.word	0x6e4f2064
    58fc:	63614d20 	.word	0x63614d20
    5900:	656e6968 	.word	0x656e6968
    5904:	6e6f4320 	.word	0x6e6f4320
    5908:	7463656e 	.word	0x7463656e
    590c:	2173726f 	.word	0x2173726f
    5910:	0000000a 	.word	0x0000000a
    5914:	474f4c5b 	.word	0x474f4c5b
    5918:	56454c5f 	.word	0x56454c5f
    591c:	495f4c45 	.word	0x495f4c45
    5920:	5d4f464e 	.word	0x5d4f464e
    5924:	61655220 	.word	0x61655220
    5928:	676e6964 	.word	0x676e6964
    592c:	6e6f4320 	.word	0x6e6f4320
    5930:	7463656e 	.word	0x7463656e
    5934:	206e6f69 	.word	0x206e6f69
    5938:	6c697542 	.word	0x6c697542
    593c:	20726564 	.word	0x20726564
    5940:	69676552 	.word	0x69676552
    5944:	000a6e6f 	.word	0x000a6e6f
    5948:	474f4c5b 	.word	0x474f4c5b
    594c:	56454c5f 	.word	0x56454c5f
    5950:	455f4c45 	.word	0x455f4c45
    5954:	524f5252 	.word	0x524f5252
    5958:	6143205d 	.word	0x6143205d
    595c:	746f6e6e 	.word	0x746f6e6e
    5960:	65726320 	.word	0x65726320
    5964:	20657461 	.word	0x20657461
    5968:	646e6966 	.word	0x646e6966
    596c:	6e656720 	.word	0x6e656720
    5970:	74617265 	.word	0x74617265
    5974:	6620726f 	.word	0x6620726f
    5978:	6820726f 	.word	0x6820726f
    597c:	3a687361 	.word	0x3a687361
    5980:	000a7525 	.word	0x000a7525
    5984:	474f4c5b 	.word	0x474f4c5b
    5988:	56454c5f 	.word	0x56454c5f
    598c:	495f4c45 	.word	0x495f4c45
    5990:	5d4f464e 	.word	0x5d4f464e
    5994:	57090920 	.word	0x57090920
    5998:	68676965 	.word	0x68676965
    599c:	00000a74 	.word	0x00000a74
    59a0:	474f4c5b 	.word	0x474f4c5b
    59a4:	56454c5f 	.word	0x56454c5f
    59a8:	495f4c45 	.word	0x495f4c45
    59ac:	5d4f464e 	.word	0x5d4f464e
    59b0:	44090920 	.word	0x44090920
    59b4:	79616c65 	.word	0x79616c65
    59b8:	0000000a 	.word	0x0000000a
    59bc:	474f4c5b 	.word	0x474f4c5b
    59c0:	56454c5f 	.word	0x56454c5f
    59c4:	455f4c45 	.word	0x455f4c45
    59c8:	524f5252 	.word	0x524f5252
    59cc:	4d09205d 	.word	0x4d09205d
    59d0:	69727461 	.word	0x69727461
    59d4:	65672078 	.word	0x65672078
    59d8:	6172656e 	.word	0x6172656e
    59dc:	6e6f6974 	.word	0x6e6f6974
    59e0:	69616620 	.word	0x69616620
    59e4:	0a64656c 	.word	0x0a64656c
    59e8:	00000000 	.word	0x00000000
    59ec:	474f4c5b 	.word	0x474f4c5b
    59f0:	56454c5f 	.word	0x56454c5f
    59f4:	495f4c45 	.word	0x495f4c45
    59f8:	5d4f464e 	.word	0x5d4f464e
    59fc:	206e4920 	.word	0x206e4920
    5a00:	646e6573 	.word	0x646e6573
    5a04:	6c656420 	.word	0x6c656420
    5a08:	0a737961 	.word	0x0a737961
    5a0c:	00000000 	.word	0x00000000
    5a10:	474f4c5b 	.word	0x474f4c5b
    5a14:	56454c5f 	.word	0x56454c5f
    5a18:	495f4c45 	.word	0x495f4c45
    5a1c:	5d4f464e 	.word	0x5d4f464e
    5a20:	2d200920 	.word	0x2d200920
    5a24:	30202d2d 	.word	0x30202d2d
    5a28:	34302578 	.word	0x34302578
    5a2c:	69662078 	.word	0x69662078
    5a30:	6873696e 	.word	0x6873696e
    5a34:	000a6465 	.word	0x000a6465
    5a38:	474f4c5b 	.word	0x474f4c5b
    5a3c:	56454c5f 	.word	0x56454c5f
    5a40:	495f4c45 	.word	0x495f4c45
    5a44:	5d4f464e 	.word	0x5d4f464e
    5a48:	21212120 	.word	0x21212120
    5a4c:	46202020 	.word	0x46202020
    5a50:	656c6961 	.word	0x656c6961
    5a54:	6f742064 	.word	0x6f742064
    5a58:	6e656720 	.word	0x6e656720
    5a5c:	74617265 	.word	0x74617265
    5a60:	79732065 	.word	0x79732065
    5a64:	7470616e 	.word	0x7470616e
    5a68:	6d206369 	.word	0x6d206369
    5a6c:	69727461 	.word	0x69727461
    5a70:	6f662078 	.word	0x6f662078
    5a74:	64652072 	.word	0x64652072
    5a78:	25206567 	.word	0x25206567
    5a7c:	20202075 	.word	0x20202075
    5a80:	0a212121 	.word	0x0a212121
    5a84:	00000000 	.word	0x00000000
    5a88:	474f4c5b 	.word	0x474f4c5b
    5a8c:	56454c5f 	.word	0x56454c5f
    5a90:	495f4c45 	.word	0x495f4c45
    5a94:	5d4f464e 	.word	0x5d4f464e
    5a98:	21212120 	.word	0x21212120
    5a9c:	45202020 	.word	0x45202020
    5aa0:	726f7272 	.word	0x726f7272
    5aa4:	61657220 	.word	0x61657220
    5aa8:	676e6964 	.word	0x676e6964
    5aac:	52445320 	.word	0x52445320
    5ab0:	64204d41 	.word	0x64204d41
    5ab4:	20617461 	.word	0x20617461
    5ab8:	21212020 	.word	0x21212020
    5abc:	00000a21 	.word	0x00000a21
    5ac0:	474f4c5b 	.word	0x474f4c5b
    5ac4:	56454c5f 	.word	0x56454c5f
    5ac8:	455f4c45 	.word	0x455f4c45
    5acc:	524f5252 	.word	0x524f5252
    5ad0:	7550205d 	.word	0x7550205d
    5ad4:	76206572 	.word	0x76206572
    5ad8:	75747269 	.word	0x75747269
    5adc:	66206c61 	.word	0x66206c61
    5ae0:	74636e75 	.word	0x74636e75
    5ae4:	206e6f69 	.word	0x206e6f69
    5ae8:	6c6c6163 	.word	0x6c6c6163
    5aec:	0000000a 	.word	0x0000000a

00005af0 <_ZTVN17ConnectionBuilder18ConnectorGenerator8AllToAllE>:
	...
    5af8:	00001d64                                d...

00005afc <_ZTVN17ConnectionBuilder18ConnectorGenerator7MappingE>:
	...
    5b04:	00001f0c                                ....

00005b08 <_ZTVN17ConnectionBuilder18ConnectorGenerator6KernelE>:
	...
    5b10:	00002064                                d ..

00005b14 <_ZTVN17ConnectionBuilder18ConnectorGenerator8OneToOneE>:
	...
    5b1c:	00001dd4                                ....

00005b20 <_ZTVN17ConnectionBuilder18ConnectorGenerator16FixedProbabilityE>:
	...
    5b28:	00001e0c 20657270 3d206425 2528203d     ....pre %d == (%
    5b38:	25202c64 3d202964 6f70203d 25207473     d, %d) == post %
    5b48:	00000a64 474f4c5b 56454c5f 495f4c45     d...[LOG_LEVEL_I
    5b58:	5d4f464e 41090920 742d6c6c 6c612d6f     NFO] ..All-to-al
    5b68:	6f63206c 63656e6e 3a726f74 6c6c4120     l connector: All
    5b78:	7320776f 20666c65 6e6e6f63 69746365     ow self connecti
    5b88:	3a736e6f 0a752520 00000000 474f4c5b     ons: %u.....[LOG
    5b98:	56454c5f 495f4c45 5d4f464e 4d090920     _LEVEL_INFO] ..M
    5ba8:	69707061 4320676e 656e6e6f 726f7463     apping Connector
    5bb8:	00000a3a 09090909 70616853 64252065     :.......Shape %d
    5bc8:	6425202c 6863203b 656e6e61 6425206c     , %d; channel %d
    5bd8:	6f72202c 74694277 64252073 6863202c     , rowBits %d, ch
    5be8:	656e6e61 7469426c 64252073 7665202c     annelBits %d, ev
    5bf8:	42746e65 20737469 000a7525 474f4c5b     entBits %u..[LOG
    5c08:	56454c5f 495f4c45 5d4f464e 09090920     _LEVEL_INFO] ...
    5c18:	6e72654b 622d6c65 64657361 6e6f4320     Kernel-based Con
    5c28:	7463656e 0a3a726f 00000000 09090909     nector:.........
    5c38:	28657270 202c6425 20296425 70203e3d     pre(%d, %d) => p
    5c48:	2874736f 202c6425 0a296425 00000000     ost(%d, %d).....
    5c58:	09090909 6e72656b 25286c65 25202c64     ....kernel(%d, %
    5c68:	202c2964 72617473 64252874 6425202c     d), start(%d, %d
    5c78:	73202c29 28706574 202c6425 0a296425     ), step(%d, %d).
    5c88:	00000000 474f4c5b 56454c5f 495f4c45     ....[LOG_LEVEL_I
    5c98:	5d4f464e 4f090920 742d656e 6e6f2d6f     NFO] ..One-to-on
    5ca8:	6f632065 63656e6e 0a726f74 00000000     e connector.....
    5cb8:	474f4c5b 56454c5f 495f4c45 5d4f464e     [LOG_LEVEL_INFO]
    5cc8:	46090920 64657869 6f72702d 69626162      ..Fixed-probabi
    5cd8:	7974696c 6e6f6320 7463656e 203a726f     lity connector: 
    5ce8:	626f7270 6c696261 3a797469 000a7525     probability:%u..

00005cf8 <_ZTVN17ConnectionBuilder15MatrixGenerator4BaseE>:
	...
    5d00:	00001b54 00001b54                       T...T...

00005d08 <_ZTVN17ConnectionBuilder15MatrixGenerator6StaticE>:
	...
    5d10:	00002844 000024a0                       D(...$..

00005d18 <_ZTVN17ConnectionBuilder15MatrixGenerator7PlasticE>:
	...
    5d20:	000024d8 000024a8 474f4c5b 56454c5f     .$...$..[LOG_LEV
    5d30:	495f4c45 5d4f464e 53090920 69746174     EL_INFO] ..Stati
    5d40:	79732063 7470616e 6d206369 69727461     c synaptic matri
    5d50:	25203a78 69732075 64656e67 69657720     x: %u signed wei
    5d60:	73746867 0000000a 474f4c5b 56454c5f     ghts....[LOG_LEV
    5d70:	495f4c45 5d4f464e 50090920 7473616c     EL_INFO] ..Plast
    5d80:	73206369 70616e79 6d206573 69727461     ic synapse matri
    5d90:	73203a78 656e6769 65772064 74686769     x: signed weight
    5da0:	75252073 756e202c 7973206d 7370616e     s %u, num synaps
    5db0:	72702065 72742d65 20656361 64726f77     e pre-trace word
    5dc0:	75252073 0000000a                       s %u....

00005dc8 <_ZTVN17ConnectionBuilder14ParamGenerator10ConvKernelE>:
	...
    5dd0:	00003108                                .1..

00005dd4 <_ZTVN17ConnectionBuilder14ParamGenerator8ConstantE>:
	...
    5ddc:	00002e90                                ....

00005de0 <_ZTVN17ConnectionBuilder14ParamGenerator7UniformE>:
	...
    5de8:	00002ebc                                ....

00005dec <_ZTVN17ConnectionBuilder14ParamGenerator6NormalE>:
	...
    5df4:	000032b8                                .2..

00005df8 <_ZTVN17ConnectionBuilder14ParamGenerator13NormalClippedE>:
	...
    5e00:	00003378                                x3..

00005e04 <_ZTVN17ConnectionBuilder14ParamGenerator23NormalClippedToBoundaryE>:
	...
    5e0c:	00003460                                `4..

00005e10 <_ZTVN17ConnectionBuilder14ParamGenerator11ExponentialE>:
	...
    5e18:	00002f68 474f4c5b 56454c5f 455f4c45     h/..[LOG_LEVEL_E
    5e28:	524f5252 654b205d 6c656e72 6f6f6320     RROR] Kernel coo
    5e38:	6e696472 73657461 66666f20 6e617220     rdinates off ran
    5e48:	28206567 202c6425 0a296425 00000000     ge (%d, %d).....
    5e58:	474f4c5b 56454c5f 495f4c45 5d4f464e     [LOG_LEVEL_INFO]
    5e68:	09090920 6e72654b 70206c65 6d617261      ...Kernel param
    5e78:	72657465 000a203a 474f4c5b 56454c5f     eter: ..[LOG_LEV
    5e88:	495f4c45 5d4f464e 09090920 736e6f43     EL_INFO] ...Cons
    5e98:	746e6174 72617020 74656d61 203a7265     tant parameter: 
    5ea8:	756c6176 64253a65 0000000a 474f4c5b     value:%d....[LOG
    5eb8:	56454c5f 495f4c45 5d4f464e 09090920     _LEVEL_INFO] ...
    5ec8:	66696e55 206d726f 61726170 6574656d     Uniform paramete
    5ed8:	6c203a72 253a776f 68202c64 3a686769     r: low:%d, high:
    5ee8:	202c6425 676e6172 64253a65 0000000a     %d, range:%d....
    5ef8:	474f4c5b 56454c5f 495f4c45 5d4f464e     [LOG_LEVEL_INFO]
    5f08:	09090920 6d726f4e 70206c61 6d617261      ...Normal param
    5f18:	72657465 756d203a 2c64253a 67697320     eter: mu:%d, sig
    5f28:	253a616d 00000a64 474f4c5b 56454c5f     ma:%d...[LOG_LEV
    5f38:	495f4c45 5d4f464e 09090920 6d726f4e     EL_INFO] ...Norm
    5f48:	63206c61 7070696c 70206465 6d617261     al clipped param
    5f58:	72657465 756d203a 2c64253a 67697320     eter: mu:%d, sig
    5f68:	253a616d 6c202c64 253a776f 68202c64     ma:%d, low:%d, h
    5f78:	3a686769 000a6425 474f4c5b 56454c5f     igh:%d..[LOG_LEV
    5f88:	495f4c45 5d4f464e 09090920 6d726f4e     EL_INFO] ...Norm
    5f98:	63206c61 7070696c 74206465 6f62206f     al clipped to bo
    5fa8:	61646e75 70207972 6d617261 72657465     undary parameter
    5fb8:	2020203a 20202020 20202020 20202020     :               
    5fc8:	20202020 20202020 20202020 756d2020                   mu
    5fd8:	2c64253a 67697320 253a616d 6c202c64     :%d, sigma:%d, l
    5fe8:	253a776f 68202c64 3a686769 000a6425     ow:%d, high:%d..
    5ff8:	474f4c5b 56454c5f 495f4c45 5d4f464e     [LOG_LEVEL_INFO]
    6008:	09090920 6f707845 746e656e 206c6169      ...Exponential 
    6018:	61726170 6574656d 62203a72 3a617465     parameter: beta:
    6028:	000a6425                                %d..

0000602c <_ZN12_GLOBAL__N_1L11g_LowValuesE>:
    602c:	00038000 000215b4 0002011f 0001f4bb     ................
    603c:	0001ebc4 0001e4b6 0001dee1 0001d9e6     ................
    604c:	0001d58c 0001d1ad 0001ce31 0001cb04     ........1.......
    605c:	0001c81a 0001c568 0001c2e6 0001c08e     ....h...........
    606c:	0001be59 0001bc45 0001ba4d 0001b86f     Y...E...M...o...
    607c:	0001b6a7 0001b4f4 0001b354 0001b1c5     ........T.......
    608c:	0001b046 0001aed6 0001ad73 0001ac1c     F.......s.......
    609c:	0001aad1 0001a991 0001a85b 0001a72e     ........[.......
    60ac:	0001a60a                                ....

000060b0 <_ZN12_GLOBAL__N_1L13g_PolynomialsE>:
    60b0:	1d302160 c66ab011 3e812c13 b85276d3     `!0...j..,.>.vR.
    60c0:	2609f00a 1e74d05a c3dc844d 416bf172     ...&Z.t.M...r.kA
    60d0:	b458b310 0c72cc69 1fe46724 c0f614e2     ..X.i.r.$g......
    60e0:	44c08778 afa90780 715bf25c 21886657     x..D....\.[qWf.!
    60f0:	bda378a8 489779f3 aa0791d0 547c86a9     .x...y.H......|T
    6100:	236d2c6b b9cabec2 4d0ff26d a319429b     k,m#....m..M.B..
    6110:	3571fa6e 5154fdc2 003f6fa8 35431d88     n.q5..TQ.o?...C5
    6120:	1cbf6c90 fca77e6a 5f02af15 0209cf66     .l..j~....._f...
    6130:	3a6f330e 203db133 00d80782 7ac848d5     .3o:3.= .....H.z
    6140:	07cd0502 432a3bdd 257c681b e8a7e0f7     .....;*C.h|%....
    6150:	27e665a1 0905d076 27367932 0c74cec1     .e.'v...2y6'..t.
    6160:	f957210c 081796b0 07fff772 14b58fcb     .!W.....r.......
    6170:	f7fd4fbc 00d936b2 00000000 00000000     .O...6..........
	...

0000618c <_ZN12_GLOBAL__N_1L14g_LeadingTermsE>:
    618c:	00018000 00018000 00010000 00010000     ................
    619c:	00010000 00000010 0000000e 0000000d     ................
    61ac:	0000000b 0000000a 00000000              ............

000061b8 <_ZN12_GLOBAL__N_1L8g_OffsetE>:
    61b8:	00001c20 00001880 00001200 00000800      ...............
	...

000061d0 <_ZN12_GLOBAL__N_1L12g_MultiplierE>:
    61d0:	00000020 00000010 00000008 00000006      ...............
    61e0:	00000006 00000000                       ........

000061e8 <build_name>:
    61e8:	6e6e6f63 69746365 625f6e6f 006c6975     connection_buil.

000061f8 <build_date>:
    61f8:	5a5641eb 4b524153 6970532f 6b614e4e     .AVZSARK/SpiNNak
    6208:	33007265 312e312e 32313000                       er.3.1.1.

00006211 <hex>:
    6211:	33323130 37363534 62613938 66656463     0123456789abcdef
    6221:	5b090900 5f697061 75626564 52205d67     ...[api_debug] R
    6231:	6d205254 20202063 61702020 74656b63     TR mc     packet
    6241:	25203a73 09000a64 70615b09 65645f69     s: %d....[api_de
    6251:	5d677562 52545220 64706420 20636d20     bug] RTR dpd mc 
    6261:	6b636170 3a737465 0a642520 5b090900     packets: %d....[
    6271:	5f697061 75626564 49205d67 74205253     api_debug] ISR t
    6281:	776f7268 6170206e 74656b63 25203a73     hrown packets: %
    6291:	09000a64 70615b09 65645f69 5d677562     d....[api_debug]
    62a1:	52534920 72687420 206e776f 70205246      ISR thrown FR p
    62b1:	656b6361 203a7374 000a6425 615b0909     ackets: %d....[a
    62c1:	645f6970 67756265 4d44205d 75622041     pi_debug] DMA bu
    62d1:	73747372 2520203a 09000a64 70615b09     rsts:  %d....[ap
    62e1:	61775f69 205d6e72 6e726177 3a676e69     i_warn] warning:
    62f1:	73617420 7571206b 20657565 6c6c7566      task queue full
    6301:	75252820 09000a29 70615b09 61775f69      (%u)....[api_wa
    6311:	205d6e72 6e726177 3a676e69 414d4420     rn] warning: DMA
    6321:	65757120 66206575 206c6c75 29752528      queue full (%u)
    6331:	0909000a 6970615b 7261775f 77205d6e     ....[api_warn] w
    6341:	696e7261 203a676e 6b636170 71207465     arning: packet q
    6351:	65756575 6c756620 2528206c 000a2975     ueue full (%u)..
